
ctarget:     file format elf64-x86-64


Disassembly of section .init:

0000000000400c48 <_init>:
  400c48:	f3 0f 1e fa          	endbr64 
  400c4c:	48 83 ec 08          	sub    $0x8,%rsp
  400c50:	48 8b 05 99 33 20 00 	mov    0x203399(%rip),%rax        # 603ff0 <__gmon_start__@Base>
  400c57:	48 85 c0             	test   %rax,%rax
  400c5a:	74 02                	je     400c5e <_init+0x16>
  400c5c:	ff d0                	callq  *%rax
  400c5e:	48 83 c4 08          	add    $0x8,%rsp
  400c62:	c3                   	retq   

Disassembly of section .plt:

0000000000400c70 <.plt>:
  400c70:	ff 35 92 33 20 00    	pushq  0x203392(%rip)        # 604008 <_GLOBAL_OFFSET_TABLE_+0x8>
  400c76:	ff 25 94 33 20 00    	jmpq   *0x203394(%rip)        # 604010 <_GLOBAL_OFFSET_TABLE_+0x10>
  400c7c:	0f 1f 40 00          	nopl   0x0(%rax)

0000000000400c80 <strcasecmp@plt>:
  400c80:	ff 25 92 33 20 00    	jmpq   *0x203392(%rip)        # 604018 <strcasecmp@GLIBC_2.2.5>
  400c86:	68 00 00 00 00       	pushq  $0x0
  400c8b:	e9 e0 ff ff ff       	jmpq   400c70 <.plt>

0000000000400c90 <__errno_location@plt>:
  400c90:	ff 25 8a 33 20 00    	jmpq   *0x20338a(%rip)        # 604020 <__errno_location@GLIBC_2.2.5>
  400c96:	68 01 00 00 00       	pushq  $0x1
  400c9b:	e9 d0 ff ff ff       	jmpq   400c70 <.plt>

0000000000400ca0 <srandom@plt>:
  400ca0:	ff 25 82 33 20 00    	jmpq   *0x203382(%rip)        # 604028 <srandom@GLIBC_2.2.5>
  400ca6:	68 02 00 00 00       	pushq  $0x2
  400cab:	e9 c0 ff ff ff       	jmpq   400c70 <.plt>

0000000000400cb0 <strncmp@plt>:
  400cb0:	ff 25 7a 33 20 00    	jmpq   *0x20337a(%rip)        # 604030 <strncmp@GLIBC_2.2.5>
  400cb6:	68 03 00 00 00       	pushq  $0x3
  400cbb:	e9 b0 ff ff ff       	jmpq   400c70 <.plt>

0000000000400cc0 <strcpy@plt>:
  400cc0:	ff 25 72 33 20 00    	jmpq   *0x203372(%rip)        # 604038 <strcpy@GLIBC_2.2.5>
  400cc6:	68 04 00 00 00       	pushq  $0x4
  400ccb:	e9 a0 ff ff ff       	jmpq   400c70 <.plt>

0000000000400cd0 <puts@plt>:
  400cd0:	ff 25 6a 33 20 00    	jmpq   *0x20336a(%rip)        # 604040 <puts@GLIBC_2.2.5>
  400cd6:	68 05 00 00 00       	pushq  $0x5
  400cdb:	e9 90 ff ff ff       	jmpq   400c70 <.plt>

0000000000400ce0 <write@plt>:
  400ce0:	ff 25 62 33 20 00    	jmpq   *0x203362(%rip)        # 604048 <write@GLIBC_2.2.5>
  400ce6:	68 06 00 00 00       	pushq  $0x6
  400ceb:	e9 80 ff ff ff       	jmpq   400c70 <.plt>

0000000000400cf0 <mmap@plt>:
  400cf0:	ff 25 5a 33 20 00    	jmpq   *0x20335a(%rip)        # 604050 <mmap@GLIBC_2.2.5>
  400cf6:	68 07 00 00 00       	pushq  $0x7
  400cfb:	e9 70 ff ff ff       	jmpq   400c70 <.plt>

0000000000400d00 <printf@plt>:
  400d00:	ff 25 52 33 20 00    	jmpq   *0x203352(%rip)        # 604058 <printf@GLIBC_2.2.5>
  400d06:	68 08 00 00 00       	pushq  $0x8
  400d0b:	e9 60 ff ff ff       	jmpq   400c70 <.plt>

0000000000400d10 <memset@plt>:
  400d10:	ff 25 4a 33 20 00    	jmpq   *0x20334a(%rip)        # 604060 <memset@GLIBC_2.2.5>
  400d16:	68 09 00 00 00       	pushq  $0x9
  400d1b:	e9 50 ff ff ff       	jmpq   400c70 <.plt>

0000000000400d20 <alarm@plt>:
  400d20:	ff 25 42 33 20 00    	jmpq   *0x203342(%rip)        # 604068 <alarm@GLIBC_2.2.5>
  400d26:	68 0a 00 00 00       	pushq  $0xa
  400d2b:	e9 40 ff ff ff       	jmpq   400c70 <.plt>

0000000000400d30 <close@plt>:
  400d30:	ff 25 3a 33 20 00    	jmpq   *0x20333a(%rip)        # 604070 <close@GLIBC_2.2.5>
  400d36:	68 0b 00 00 00       	pushq  $0xb
  400d3b:	e9 30 ff ff ff       	jmpq   400c70 <.plt>

0000000000400d40 <read@plt>:
  400d40:	ff 25 32 33 20 00    	jmpq   *0x203332(%rip)        # 604078 <read@GLIBC_2.2.5>
  400d46:	68 0c 00 00 00       	pushq  $0xc
  400d4b:	e9 20 ff ff ff       	jmpq   400c70 <.plt>

0000000000400d50 <signal@plt>:
  400d50:	ff 25 2a 33 20 00    	jmpq   *0x20332a(%rip)        # 604080 <signal@GLIBC_2.2.5>
  400d56:	68 0d 00 00 00       	pushq  $0xd
  400d5b:	e9 10 ff ff ff       	jmpq   400c70 <.plt>

0000000000400d60 <gethostbyname@plt>:
  400d60:	ff 25 22 33 20 00    	jmpq   *0x203322(%rip)        # 604088 <gethostbyname@GLIBC_2.2.5>
  400d66:	68 0e 00 00 00       	pushq  $0xe
  400d6b:	e9 00 ff ff ff       	jmpq   400c70 <.plt>

0000000000400d70 <fprintf@plt>:
  400d70:	ff 25 1a 33 20 00    	jmpq   *0x20331a(%rip)        # 604090 <fprintf@GLIBC_2.2.5>
  400d76:	68 0f 00 00 00       	pushq  $0xf
  400d7b:	e9 f0 fe ff ff       	jmpq   400c70 <.plt>

0000000000400d80 <strtol@plt>:
  400d80:	ff 25 12 33 20 00    	jmpq   *0x203312(%rip)        # 604098 <strtol@GLIBC_2.2.5>
  400d86:	68 10 00 00 00       	pushq  $0x10
  400d8b:	e9 e0 fe ff ff       	jmpq   400c70 <.plt>

0000000000400d90 <memcpy@plt>:
  400d90:	ff 25 0a 33 20 00    	jmpq   *0x20330a(%rip)        # 6040a0 <memcpy@GLIBC_2.14>
  400d96:	68 11 00 00 00       	pushq  $0x11
  400d9b:	e9 d0 fe ff ff       	jmpq   400c70 <.plt>

0000000000400da0 <time@plt>:
  400da0:	ff 25 02 33 20 00    	jmpq   *0x203302(%rip)        # 6040a8 <time@GLIBC_2.2.5>
  400da6:	68 12 00 00 00       	pushq  $0x12
  400dab:	e9 c0 fe ff ff       	jmpq   400c70 <.plt>

0000000000400db0 <random@plt>:
  400db0:	ff 25 fa 32 20 00    	jmpq   *0x2032fa(%rip)        # 6040b0 <random@GLIBC_2.2.5>
  400db6:	68 13 00 00 00       	pushq  $0x13
  400dbb:	e9 b0 fe ff ff       	jmpq   400c70 <.plt>

0000000000400dc0 <__isoc99_sscanf@plt>:
  400dc0:	ff 25 f2 32 20 00    	jmpq   *0x2032f2(%rip)        # 6040b8 <__isoc99_sscanf@GLIBC_2.7>
  400dc6:	68 14 00 00 00       	pushq  $0x14
  400dcb:	e9 a0 fe ff ff       	jmpq   400c70 <.plt>

0000000000400dd0 <munmap@plt>:
  400dd0:	ff 25 ea 32 20 00    	jmpq   *0x2032ea(%rip)        # 6040c0 <munmap@GLIBC_2.2.5>
  400dd6:	68 15 00 00 00       	pushq  $0x15
  400ddb:	e9 90 fe ff ff       	jmpq   400c70 <.plt>

0000000000400de0 <memmove@plt>:
  400de0:	ff 25 e2 32 20 00    	jmpq   *0x2032e2(%rip)        # 6040c8 <memmove@GLIBC_2.2.5>
  400de6:	68 16 00 00 00       	pushq  $0x16
  400deb:	e9 80 fe ff ff       	jmpq   400c70 <.plt>

0000000000400df0 <fopen@plt>:
  400df0:	ff 25 da 32 20 00    	jmpq   *0x2032da(%rip)        # 6040d0 <fopen@GLIBC_2.2.5>
  400df6:	68 17 00 00 00       	pushq  $0x17
  400dfb:	e9 70 fe ff ff       	jmpq   400c70 <.plt>

0000000000400e00 <getopt@plt>:
  400e00:	ff 25 d2 32 20 00    	jmpq   *0x2032d2(%rip)        # 6040d8 <getopt@GLIBC_2.2.5>
  400e06:	68 18 00 00 00       	pushq  $0x18
  400e0b:	e9 60 fe ff ff       	jmpq   400c70 <.plt>

0000000000400e10 <strtoul@plt>:
  400e10:	ff 25 ca 32 20 00    	jmpq   *0x2032ca(%rip)        # 6040e0 <strtoul@GLIBC_2.2.5>
  400e16:	68 19 00 00 00       	pushq  $0x19
  400e1b:	e9 50 fe ff ff       	jmpq   400c70 <.plt>

0000000000400e20 <gethostname@plt>:
  400e20:	ff 25 c2 32 20 00    	jmpq   *0x2032c2(%rip)        # 6040e8 <gethostname@GLIBC_2.2.5>
  400e26:	68 1a 00 00 00       	pushq  $0x1a
  400e2b:	e9 40 fe ff ff       	jmpq   400c70 <.plt>

0000000000400e30 <sprintf@plt>:
  400e30:	ff 25 ba 32 20 00    	jmpq   *0x2032ba(%rip)        # 6040f0 <sprintf@GLIBC_2.2.5>
  400e36:	68 1b 00 00 00       	pushq  $0x1b
  400e3b:	e9 30 fe ff ff       	jmpq   400c70 <.plt>

0000000000400e40 <exit@plt>:
  400e40:	ff 25 b2 32 20 00    	jmpq   *0x2032b2(%rip)        # 6040f8 <exit@GLIBC_2.2.5>
  400e46:	68 1c 00 00 00       	pushq  $0x1c
  400e4b:	e9 20 fe ff ff       	jmpq   400c70 <.plt>

0000000000400e50 <connect@plt>:
  400e50:	ff 25 aa 32 20 00    	jmpq   *0x2032aa(%rip)        # 604100 <connect@GLIBC_2.2.5>
  400e56:	68 1d 00 00 00       	pushq  $0x1d
  400e5b:	e9 10 fe ff ff       	jmpq   400c70 <.plt>

0000000000400e60 <getc@plt>:
  400e60:	ff 25 a2 32 20 00    	jmpq   *0x2032a2(%rip)        # 604108 <getc@GLIBC_2.2.5>
  400e66:	68 1e 00 00 00       	pushq  $0x1e
  400e6b:	e9 00 fe ff ff       	jmpq   400c70 <.plt>

0000000000400e70 <socket@plt>:
  400e70:	ff 25 9a 32 20 00    	jmpq   *0x20329a(%rip)        # 604110 <socket@GLIBC_2.2.5>
  400e76:	68 1f 00 00 00       	pushq  $0x1f
  400e7b:	e9 f0 fd ff ff       	jmpq   400c70 <.plt>

Disassembly of section .text:

0000000000400e80 <_start>:
  400e80:	f3 0f 1e fa          	endbr64 
  400e84:	31 ed                	xor    %ebp,%ebp
  400e86:	49 89 d1             	mov    %rdx,%r9
  400e89:	5e                   	pop    %rsi
  400e8a:	48 89 e2             	mov    %rsp,%rdx
  400e8d:	48 83 e4 f0          	and    $0xfffffffffffffff0,%rsp
  400e91:	50                   	push   %rax
  400e92:	54                   	push   %rsp
  400e93:	49 c7 c0 60 2c 40 00 	mov    $0x402c60,%r8
  400e9a:	48 c7 c1 f0 2b 40 00 	mov    $0x402bf0,%rcx
  400ea1:	48 c7 c7 2f 11 40 00 	mov    $0x40112f,%rdi
  400ea8:	ff 15 3a 31 20 00    	callq  *0x20313a(%rip)        # 603fe8 <__libc_start_main@GLIBC_2.2.5>
  400eae:	f4                   	hlt    

0000000000400eaf <.annobin_init.c>:
  400eaf:	90                   	nop

0000000000400eb0 <_dl_relocate_static_pie>:
  400eb0:	f3 0f 1e fa          	endbr64 
  400eb4:	c3                   	retq   

0000000000400eb5 <.annobin__dl_relocate_static_pie.end>:
  400eb5:	66 2e 0f 1f 84 00 00 	nopw   %cs:0x0(%rax,%rax,1)
  400ebc:	00 00 00 
  400ebf:	90                   	nop

0000000000400ec0 <deregister_tm_clones>:
  400ec0:	48 8d 3d c9 35 20 00 	lea    0x2035c9(%rip),%rdi        # 604490 <__TMC_END__>
  400ec7:	48 8d 05 c2 35 20 00 	lea    0x2035c2(%rip),%rax        # 604490 <__TMC_END__>
  400ece:	48 39 f8             	cmp    %rdi,%rax
  400ed1:	74 15                	je     400ee8 <deregister_tm_clones+0x28>
  400ed3:	48 8b 05 06 31 20 00 	mov    0x203106(%rip),%rax        # 603fe0 <_ITM_deregisterTMCloneTable@Base>
  400eda:	48 85 c0             	test   %rax,%rax
  400edd:	74 09                	je     400ee8 <deregister_tm_clones+0x28>
  400edf:	ff e0                	jmpq   *%rax
  400ee1:	0f 1f 80 00 00 00 00 	nopl   0x0(%rax)
  400ee8:	c3                   	retq   
  400ee9:	0f 1f 80 00 00 00 00 	nopl   0x0(%rax)

0000000000400ef0 <register_tm_clones>:
  400ef0:	48 8d 3d 99 35 20 00 	lea    0x203599(%rip),%rdi        # 604490 <__TMC_END__>
  400ef7:	48 8d 35 92 35 20 00 	lea    0x203592(%rip),%rsi        # 604490 <__TMC_END__>
  400efe:	48 29 fe             	sub    %rdi,%rsi
  400f01:	48 c1 fe 03          	sar    $0x3,%rsi
  400f05:	48 89 f0             	mov    %rsi,%rax
  400f08:	48 c1 e8 3f          	shr    $0x3f,%rax
  400f0c:	48 01 c6             	add    %rax,%rsi
  400f0f:	48 d1 fe             	sar    %rsi
  400f12:	74 14                	je     400f28 <register_tm_clones+0x38>
  400f14:	48 8b 05 dd 30 20 00 	mov    0x2030dd(%rip),%rax        # 603ff8 <_ITM_registerTMCloneTable@Base>
  400f1b:	48 85 c0             	test   %rax,%rax
  400f1e:	74 08                	je     400f28 <register_tm_clones+0x38>
  400f20:	ff e0                	jmpq   *%rax
  400f22:	66 0f 1f 44 00 00    	nopw   0x0(%rax,%rax,1)
  400f28:	c3                   	retq   
  400f29:	0f 1f 80 00 00 00 00 	nopl   0x0(%rax)

0000000000400f30 <__do_global_dtors_aux>:
  400f30:	f3 0f 1e fa          	endbr64 
  400f34:	80 3d 8d 35 20 00 00 	cmpb   $0x0,0x20358d(%rip)        # 6044c8 <completed.7302>
  400f3b:	75 13                	jne    400f50 <__do_global_dtors_aux+0x20>
  400f3d:	55                   	push   %rbp
  400f3e:	48 89 e5             	mov    %rsp,%rbp
  400f41:	e8 7a ff ff ff       	callq  400ec0 <deregister_tm_clones>
  400f46:	c6 05 7b 35 20 00 01 	movb   $0x1,0x20357b(%rip)        # 6044c8 <completed.7302>
  400f4d:	5d                   	pop    %rbp
  400f4e:	c3                   	retq   
  400f4f:	90                   	nop
  400f50:	c3                   	retq   
  400f51:	66 66 2e 0f 1f 84 00 	data16 nopw %cs:0x0(%rax,%rax,1)
  400f58:	00 00 00 00 
  400f5c:	0f 1f 40 00          	nopl   0x0(%rax)

0000000000400f60 <frame_dummy>:
  400f60:	f3 0f 1e fa          	endbr64 
  400f64:	eb 8a                	jmp    400ef0 <register_tm_clones>

0000000000400f66 <usage>:
  400f66:	48 83 ec 08          	sub    $0x8,%rsp
  400f6a:	48 89 fe             	mov    %rdi,%rsi
  400f6d:	83 3d 94 35 20 00 00 	cmpl   $0x0,0x203594(%rip)        # 604508 <is_checker>
  400f74:	74 41                	je     400fb7 <usage+0x51>
  400f76:	bf 90 2c 40 00       	mov    $0x402c90,%edi
  400f7b:	b8 00 00 00 00       	mov    $0x0,%eax
  400f80:	e8 7b fd ff ff       	callq  400d00 <printf@plt>
  400f85:	bf c8 2c 40 00       	mov    $0x402cc8,%edi
  400f8a:	e8 41 fd ff ff       	callq  400cd0 <puts@plt>
  400f8f:	bf 40 2e 40 00       	mov    $0x402e40,%edi
  400f94:	e8 37 fd ff ff       	callq  400cd0 <puts@plt>
  400f99:	bf f0 2c 40 00       	mov    $0x402cf0,%edi
  400f9e:	e8 2d fd ff ff       	callq  400cd0 <puts@plt>
  400fa3:	bf 5a 2e 40 00       	mov    $0x402e5a,%edi
  400fa8:	e8 23 fd ff ff       	callq  400cd0 <puts@plt>
  400fad:	bf 00 00 00 00       	mov    $0x0,%edi
  400fb2:	e8 89 fe ff ff       	callq  400e40 <exit@plt>
  400fb7:	bf 76 2e 40 00       	mov    $0x402e76,%edi
  400fbc:	b8 00 00 00 00       	mov    $0x0,%eax
  400fc1:	e8 3a fd ff ff       	callq  400d00 <printf@plt>
  400fc6:	bf 18 2d 40 00       	mov    $0x402d18,%edi
  400fcb:	e8 00 fd ff ff       	callq  400cd0 <puts@plt>
  400fd0:	bf 40 2d 40 00       	mov    $0x402d40,%edi
  400fd5:	e8 f6 fc ff ff       	callq  400cd0 <puts@plt>
  400fda:	bf 94 2e 40 00       	mov    $0x402e94,%edi
  400fdf:	e8 ec fc ff ff       	callq  400cd0 <puts@plt>
  400fe4:	eb c7                	jmp    400fad <usage+0x47>

0000000000400fe6 <initialize_target>:
  400fe6:	55                   	push   %rbp
  400fe7:	53                   	push   %rbx
  400fe8:	48 81 ec 08 21 00 00 	sub    $0x2108,%rsp
  400fef:	89 f5                	mov    %esi,%ebp
  400ff1:	89 3d 01 35 20 00    	mov    %edi,0x203501(%rip)        # 6044f8 <check_level>
  400ff7:	8b 3d 4b 31 20 00    	mov    0x20314b(%rip),%edi        # 604148 <target_id>
  400ffd:	e8 cf 1b 00 00       	callq  402bd1 <gencookie>
  401002:	89 05 fc 34 20 00    	mov    %eax,0x2034fc(%rip)        # 604504 <cookie>
  401008:	89 c7                	mov    %eax,%edi
  40100a:	e8 c2 1b 00 00       	callq  402bd1 <gencookie>
  40100f:	89 05 eb 34 20 00    	mov    %eax,0x2034eb(%rip)        # 604500 <authkey>
  401015:	8b 05 2d 31 20 00    	mov    0x20312d(%rip),%eax        # 604148 <target_id>
  40101b:	8d 78 01             	lea    0x1(%rax),%edi
  40101e:	e8 7d fc ff ff       	callq  400ca0 <srandom@plt>
  401023:	e8 88 fd ff ff       	callq  400db0 <random@plt>
  401028:	89 c7                	mov    %eax,%edi
  40102a:	e8 b8 02 00 00       	callq  4012e7 <scramble>
  40102f:	89 c3                	mov    %eax,%ebx
  401031:	85 ed                	test   %ebp,%ebp
  401033:	75 3d                	jne    401072 <initialize_target+0x8c>
  401035:	b8 00 00 00 00       	mov    $0x0,%eax
  40103a:	01 d8                	add    %ebx,%eax
  40103c:	0f b7 c0             	movzwl %ax,%eax
  40103f:	8d 04 c5 00 01 00 00 	lea    0x100(,%rax,8),%eax
  401046:	89 c0                	mov    %eax,%eax
  401048:	48 89 05 31 34 20 00 	mov    %rax,0x203431(%rip)        # 604480 <buf_offset>
  40104f:	c6 05 d2 40 20 00 63 	movb   $0x63,0x2040d2(%rip)        # 605128 <target_prefix>
  401056:	83 3d 2b 34 20 00 00 	cmpl   $0x0,0x20342b(%rip)        # 604488 <notify>
  40105d:	74 09                	je     401068 <initialize_target+0x82>
  40105f:	83 3d a2 34 20 00 00 	cmpl   $0x0,0x2034a2(%rip)        # 604508 <is_checker>
  401066:	74 22                	je     40108a <initialize_target+0xa4>
  401068:	48 81 c4 08 21 00 00 	add    $0x2108,%rsp
  40106f:	5b                   	pop    %rbx
  401070:	5d                   	pop    %rbp
  401071:	c3                   	retq   
  401072:	bf 00 00 00 00       	mov    $0x0,%edi
  401077:	e8 24 fd ff ff       	callq  400da0 <time@plt>
  40107c:	89 c7                	mov    %eax,%edi
  40107e:	e8 1d fc ff ff       	callq  400ca0 <srandom@plt>
  401083:	e8 28 fd ff ff       	callq  400db0 <random@plt>
  401088:	eb b0                	jmp    40103a <initialize_target+0x54>
  40108a:	be 00 01 00 00       	mov    $0x100,%esi
  40108f:	48 89 e7             	mov    %rsp,%rdi
  401092:	e8 89 fd ff ff       	callq  400e20 <gethostname@plt>
  401097:	89 c5                	mov    %eax,%ebp
  401099:	85 c0                	test   %eax,%eax
  40109b:	75 23                	jne    4010c0 <initialize_target+0xda>
  40109d:	89 c3                	mov    %eax,%ebx
  40109f:	48 63 c3             	movslq %ebx,%rax
  4010a2:	48 8b 3c c5 60 41 60 	mov    0x604160(,%rax,8),%rdi
  4010a9:	00 
  4010aa:	48 85 ff             	test   %rdi,%rdi
  4010ad:	74 2a                	je     4010d9 <initialize_target+0xf3>
  4010af:	48 89 e6             	mov    %rsp,%rsi
  4010b2:	e8 c9 fb ff ff       	callq  400c80 <strcasecmp@plt>
  4010b7:	85 c0                	test   %eax,%eax
  4010b9:	74 19                	je     4010d4 <initialize_target+0xee>
  4010bb:	83 c3 01             	add    $0x1,%ebx
  4010be:	eb df                	jmp    40109f <initialize_target+0xb9>
  4010c0:	bf 70 2d 40 00       	mov    $0x402d70,%edi
  4010c5:	e8 06 fc ff ff       	callq  400cd0 <puts@plt>
  4010ca:	bf 08 00 00 00       	mov    $0x8,%edi
  4010cf:	e8 6c fd ff ff       	callq  400e40 <exit@plt>
  4010d4:	bd 01 00 00 00       	mov    $0x1,%ebp
  4010d9:	85 ed                	test   %ebp,%ebp
  4010db:	74 36                	je     401113 <initialize_target+0x12d>
  4010dd:	48 8d bc 24 00 01 00 	lea    0x100(%rsp),%rdi
  4010e4:	00 
  4010e5:	e8 71 18 00 00       	callq  40295b <init_driver>
  4010ea:	85 c0                	test   %eax,%eax
  4010ec:	0f 89 76 ff ff ff    	jns    401068 <initialize_target+0x82>
  4010f2:	48 8d b4 24 00 01 00 	lea    0x100(%rsp),%rsi
  4010f9:	00 
  4010fa:	bf e8 2d 40 00       	mov    $0x402de8,%edi
  4010ff:	b8 00 00 00 00       	mov    $0x0,%eax
  401104:	e8 f7 fb ff ff       	callq  400d00 <printf@plt>
  401109:	bf 08 00 00 00       	mov    $0x8,%edi
  40110e:	e8 2d fd ff ff       	callq  400e40 <exit@plt>
  401113:	48 89 e6             	mov    %rsp,%rsi
  401116:	bf a8 2d 40 00       	mov    $0x402da8,%edi
  40111b:	b8 00 00 00 00       	mov    $0x0,%eax
  401120:	e8 db fb ff ff       	callq  400d00 <printf@plt>
  401125:	bf 08 00 00 00       	mov    $0x8,%edi
  40112a:	e8 11 fd ff ff       	callq  400e40 <exit@plt>

000000000040112f <main>:
  40112f:	41 56                	push   %r14
  401131:	41 55                	push   %r13
  401133:	41 54                	push   %r12
  401135:	55                   	push   %rbp
  401136:	53                   	push   %rbx
  401137:	89 fd                	mov    %edi,%ebp
  401139:	48 89 f3             	mov    %rsi,%rbx
  40113c:	be 60 1d 40 00       	mov    $0x401d60,%esi
  401141:	bf 0b 00 00 00       	mov    $0xb,%edi
  401146:	e8 05 fc ff ff       	callq  400d50 <signal@plt>
  40114b:	be 12 1d 40 00       	mov    $0x401d12,%esi
  401150:	bf 07 00 00 00       	mov    $0x7,%edi
  401155:	e8 f6 fb ff ff       	callq  400d50 <signal@plt>
  40115a:	be ae 1d 40 00       	mov    $0x401dae,%esi
  40115f:	bf 04 00 00 00       	mov    $0x4,%edi
  401164:	e8 e7 fb ff ff       	callq  400d50 <signal@plt>
  401169:	83 3d 98 33 20 00 00 	cmpl   $0x0,0x203398(%rip)        # 604508 <is_checker>
  401170:	75 25                	jne    401197 <main+0x68>
  401172:	41 bc b5 2e 40 00    	mov    $0x402eb5,%r12d
  401178:	48 8b 05 21 33 20 00 	mov    0x203321(%rip),%rax        # 6044a0 <stdin@@GLIBC_2.2.5>
  40117f:	48 89 05 6a 33 20 00 	mov    %rax,0x20336a(%rip)        # 6044f0 <infile>
  401186:	41 bd 00 00 00 00    	mov    $0x0,%r13d
  40118c:	41 be 00 00 00 00    	mov    $0x0,%r14d
  401192:	e9 81 00 00 00       	jmpq   401218 <main+0xe9>
  401197:	be fc 1d 40 00       	mov    $0x401dfc,%esi
  40119c:	bf 0e 00 00 00       	mov    $0xe,%edi
  4011a1:	e8 aa fb ff ff       	callq  400d50 <signal@plt>
  4011a6:	bf 05 00 00 00       	mov    $0x5,%edi
  4011ab:	e8 70 fb ff ff       	callq  400d20 <alarm@plt>
  4011b0:	41 bc ad 2e 40 00    	mov    $0x402ead,%r12d
  4011b6:	eb c0                	jmp    401178 <main+0x49>
  4011b8:	48 8b 3b             	mov    (%rbx),%rdi
  4011bb:	e8 a6 fd ff ff       	callq  400f66 <usage>
  4011c0:	be 75 31 40 00       	mov    $0x403175,%esi
  4011c5:	48 8b 3d dc 32 20 00 	mov    0x2032dc(%rip),%rdi        # 6044a8 <optarg@@GLIBC_2.2.5>
  4011cc:	e8 1f fc ff ff       	callq  400df0 <fopen@plt>
  4011d1:	48 89 05 18 33 20 00 	mov    %rax,0x203318(%rip)        # 6044f0 <infile>
  4011d8:	48 85 c0             	test   %rax,%rax
  4011db:	75 3b                	jne    401218 <main+0xe9>
  4011dd:	48 8b 15 c4 32 20 00 	mov    0x2032c4(%rip),%rdx        # 6044a8 <optarg@@GLIBC_2.2.5>
  4011e4:	be ba 2e 40 00       	mov    $0x402eba,%esi
  4011e9:	48 8b 3d d0 32 20 00 	mov    0x2032d0(%rip),%rdi        # 6044c0 <stderr@@GLIBC_2.2.5>
  4011f0:	e8 7b fb ff ff       	callq  400d70 <fprintf@plt>
  4011f5:	b8 01 00 00 00       	mov    $0x1,%eax
  4011fa:	e9 c1 00 00 00       	jmpq   4012c0 <main+0x191>
  4011ff:	ba 10 00 00 00       	mov    $0x10,%edx
  401204:	be 00 00 00 00       	mov    $0x0,%esi
  401209:	48 8b 3d 98 32 20 00 	mov    0x203298(%rip),%rdi        # 6044a8 <optarg@@GLIBC_2.2.5>
  401210:	e8 fb fb ff ff       	callq  400e10 <strtoul@plt>
  401215:	41 89 c6             	mov    %eax,%r14d
  401218:	4c 89 e2             	mov    %r12,%rdx
  40121b:	48 89 de             	mov    %rbx,%rsi
  40121e:	89 ef                	mov    %ebp,%edi
  401220:	e8 db fb ff ff       	callq  400e00 <getopt@plt>
  401225:	3c ff                	cmp    $0xff,%al
  401227:	74 52                	je     40127b <main+0x14c>
  401229:	0f be f0             	movsbl %al,%esi
  40122c:	83 e8 61             	sub    $0x61,%eax
  40122f:	3c 10                	cmp    $0x10,%al
  401231:	77 31                	ja     401264 <main+0x135>
  401233:	0f b6 c0             	movzbl %al,%eax
  401236:	ff 24 c5 f8 2e 40 00 	jmpq   *0x402ef8(,%rax,8)
  40123d:	ba 0a 00 00 00       	mov    $0xa,%edx
  401242:	be 00 00 00 00       	mov    $0x0,%esi
  401247:	48 8b 3d 5a 32 20 00 	mov    0x20325a(%rip),%rdi        # 6044a8 <optarg@@GLIBC_2.2.5>
  40124e:	e8 2d fb ff ff       	callq  400d80 <strtol@plt>
  401253:	41 89 c5             	mov    %eax,%r13d
  401256:	eb c0                	jmp    401218 <main+0xe9>
  401258:	c7 05 26 32 20 00 00 	movl   $0x0,0x203226(%rip)        # 604488 <notify>
  40125f:	00 00 00 
  401262:	eb b4                	jmp    401218 <main+0xe9>
  401264:	bf d7 2e 40 00       	mov    $0x402ed7,%edi
  401269:	b8 00 00 00 00       	mov    $0x0,%eax
  40126e:	e8 8d fa ff ff       	callq  400d00 <printf@plt>
  401273:	48 8b 3b             	mov    (%rbx),%rdi
  401276:	e8 eb fc ff ff       	callq  400f66 <usage>
  40127b:	be 00 00 00 00       	mov    $0x0,%esi
  401280:	44 89 ef             	mov    %r13d,%edi
  401283:	e8 5e fd ff ff       	callq  400fe6 <initialize_target>
  401288:	83 3d 79 32 20 00 00 	cmpl   $0x0,0x203279(%rip)        # 604508 <is_checker>
  40128f:	74 09                	je     40129a <main+0x16b>
  401291:	44 39 35 68 32 20 00 	cmp    %r14d,0x203268(%rip)        # 604500 <authkey>
  401298:	75 2f                	jne    4012c9 <main+0x19a>
  40129a:	8b 35 64 32 20 00    	mov    0x203264(%rip),%esi        # 604504 <cookie>
  4012a0:	bf ea 2e 40 00       	mov    $0x402eea,%edi
  4012a5:	b8 00 00 00 00       	mov    $0x0,%eax
  4012aa:	e8 51 fa ff ff       	callq  400d00 <printf@plt>
  4012af:	48 8b 3d ca 31 20 00 	mov    0x2031ca(%rip),%rdi        # 604480 <buf_offset>
  4012b6:	e8 12 0c 00 00       	callq  401ecd <stable_launch>
  4012bb:	b8 00 00 00 00       	mov    $0x0,%eax
  4012c0:	5b                   	pop    %rbx
  4012c1:	5d                   	pop    %rbp
  4012c2:	41 5c                	pop    %r12
  4012c4:	41 5d                	pop    %r13
  4012c6:	41 5e                	pop    %r14
  4012c8:	c3                   	retq   
  4012c9:	44 89 f6             	mov    %r14d,%esi
  4012cc:	bf 10 2e 40 00       	mov    $0x402e10,%edi
  4012d1:	b8 00 00 00 00       	mov    $0x0,%eax
  4012d6:	e8 25 fa ff ff       	callq  400d00 <printf@plt>
  4012db:	b8 00 00 00 00       	mov    $0x0,%eax
  4012e0:	e8 31 07 00 00       	callq  401a16 <check_fail>
  4012e5:	eb b3                	jmp    40129a <main+0x16b>

00000000004012e7 <scramble>:
  4012e7:	b8 00 00 00 00       	mov    $0x0,%eax
  4012ec:	83 f8 09             	cmp    $0x9,%eax
  4012ef:	77 13                	ja     401304 <scramble+0x1d>
  4012f1:	69 d0 49 1a 00 00    	imul   $0x1a49,%eax,%edx
  4012f7:	01 fa                	add    %edi,%edx
  4012f9:	89 c1                	mov    %eax,%ecx
  4012fb:	89 54 8c d0          	mov    %edx,-0x30(%rsp,%rcx,4)
  4012ff:	83 c0 01             	add    $0x1,%eax
  401302:	eb e8                	jmp    4012ec <scramble+0x5>
  401304:	8b 44 24 d4          	mov    -0x2c(%rsp),%eax
  401308:	69 c0 e7 ba 00 00    	imul   $0xbae7,%eax,%eax
  40130e:	89 44 24 d4          	mov    %eax,-0x2c(%rsp)
  401312:	8b 44 24 f4          	mov    -0xc(%rsp),%eax
  401316:	69 c0 3c 06 00 00    	imul   $0x63c,%eax,%eax
  40131c:	89 44 24 f4          	mov    %eax,-0xc(%rsp)
  401320:	8b 44 24 e4          	mov    -0x1c(%rsp),%eax
  401324:	69 c0 95 0f 00 00    	imul   $0xf95,%eax,%eax
  40132a:	89 44 24 e4          	mov    %eax,-0x1c(%rsp)
  40132e:	8b 44 24 d8          	mov    -0x28(%rsp),%eax
  401332:	69 c0 c4 f3 00 00    	imul   $0xf3c4,%eax,%eax
  401338:	89 44 24 d8          	mov    %eax,-0x28(%rsp)
  40133c:	8b 44 24 f4          	mov    -0xc(%rsp),%eax
  401340:	69 c0 e0 31 00 00    	imul   $0x31e0,%eax,%eax
  401346:	89 44 24 f4          	mov    %eax,-0xc(%rsp)
  40134a:	8b 44 24 e0          	mov    -0x20(%rsp),%eax
  40134e:	69 c0 3b e6 00 00    	imul   $0xe63b,%eax,%eax
  401354:	89 44 24 e0          	mov    %eax,-0x20(%rsp)
  401358:	8b 44 24 d0          	mov    -0x30(%rsp),%eax
  40135c:	69 c0 8b dc 00 00    	imul   $0xdc8b,%eax,%eax
  401362:	89 44 24 d0          	mov    %eax,-0x30(%rsp)
  401366:	8b 44 24 f4          	mov    -0xc(%rsp),%eax
  40136a:	69 c0 76 96 00 00    	imul   $0x9676,%eax,%eax
  401370:	89 44 24 f4          	mov    %eax,-0xc(%rsp)
  401374:	8b 44 24 e0          	mov    -0x20(%rsp),%eax
  401378:	69 c0 f2 25 00 00    	imul   $0x25f2,%eax,%eax
  40137e:	89 44 24 e0          	mov    %eax,-0x20(%rsp)
  401382:	8b 44 24 ec          	mov    -0x14(%rsp),%eax
  401386:	69 c0 a9 0c 00 00    	imul   $0xca9,%eax,%eax
  40138c:	89 44 24 ec          	mov    %eax,-0x14(%rsp)
  401390:	8b 44 24 ec          	mov    -0x14(%rsp),%eax
  401394:	69 c0 31 b8 00 00    	imul   $0xb831,%eax,%eax
  40139a:	89 44 24 ec          	mov    %eax,-0x14(%rsp)
  40139e:	8b 44 24 d4          	mov    -0x2c(%rsp),%eax
  4013a2:	69 c0 e5 b5 00 00    	imul   $0xb5e5,%eax,%eax
  4013a8:	89 44 24 d4          	mov    %eax,-0x2c(%rsp)
  4013ac:	8b 44 24 e8          	mov    -0x18(%rsp),%eax
  4013b0:	69 c0 c5 37 00 00    	imul   $0x37c5,%eax,%eax
  4013b6:	89 44 24 e8          	mov    %eax,-0x18(%rsp)
  4013ba:	8b 44 24 e8          	mov    -0x18(%rsp),%eax
  4013be:	69 c0 a0 f5 00 00    	imul   $0xf5a0,%eax,%eax
  4013c4:	89 44 24 e8          	mov    %eax,-0x18(%rsp)
  4013c8:	8b 44 24 dc          	mov    -0x24(%rsp),%eax
  4013cc:	69 c0 15 db 00 00    	imul   $0xdb15,%eax,%eax
  4013d2:	89 44 24 dc          	mov    %eax,-0x24(%rsp)
  4013d6:	8b 44 24 e0          	mov    -0x20(%rsp),%eax
  4013da:	69 c0 37 b9 00 00    	imul   $0xb937,%eax,%eax
  4013e0:	89 44 24 e0          	mov    %eax,-0x20(%rsp)
  4013e4:	8b 44 24 e4          	mov    -0x1c(%rsp),%eax
  4013e8:	69 c0 57 e9 00 00    	imul   $0xe957,%eax,%eax
  4013ee:	89 44 24 e4          	mov    %eax,-0x1c(%rsp)
  4013f2:	8b 44 24 d0          	mov    -0x30(%rsp),%eax
  4013f6:	69 c0 08 a1 00 00    	imul   $0xa108,%eax,%eax
  4013fc:	89 44 24 d0          	mov    %eax,-0x30(%rsp)
  401400:	8b 44 24 d0          	mov    -0x30(%rsp),%eax
  401404:	69 c0 25 d3 00 00    	imul   $0xd325,%eax,%eax
  40140a:	89 44 24 d0          	mov    %eax,-0x30(%rsp)
  40140e:	8b 44 24 dc          	mov    -0x24(%rsp),%eax
  401412:	69 c0 8d 17 00 00    	imul   $0x178d,%eax,%eax
  401418:	89 44 24 dc          	mov    %eax,-0x24(%rsp)
  40141c:	8b 44 24 e8          	mov    -0x18(%rsp),%eax
  401420:	69 c0 37 a0 00 00    	imul   $0xa037,%eax,%eax
  401426:	89 44 24 e8          	mov    %eax,-0x18(%rsp)
  40142a:	8b 44 24 f0          	mov    -0x10(%rsp),%eax
  40142e:	69 c0 4c 58 00 00    	imul   $0x584c,%eax,%eax
  401434:	89 44 24 f0          	mov    %eax,-0x10(%rsp)
  401438:	8b 44 24 f0          	mov    -0x10(%rsp),%eax
  40143c:	69 c0 ce 2a 00 00    	imul   $0x2ace,%eax,%eax
  401442:	89 44 24 f0          	mov    %eax,-0x10(%rsp)
  401446:	8b 44 24 d8          	mov    -0x28(%rsp),%eax
  40144a:	69 c0 a1 5f 00 00    	imul   $0x5fa1,%eax,%eax
  401450:	89 44 24 d8          	mov    %eax,-0x28(%rsp)
  401454:	8b 44 24 e0          	mov    -0x20(%rsp),%eax
  401458:	69 c0 34 5d 00 00    	imul   $0x5d34,%eax,%eax
  40145e:	89 44 24 e0          	mov    %eax,-0x20(%rsp)
  401462:	8b 44 24 dc          	mov    -0x24(%rsp),%eax
  401466:	69 c0 37 5a 00 00    	imul   $0x5a37,%eax,%eax
  40146c:	89 44 24 dc          	mov    %eax,-0x24(%rsp)
  401470:	8b 44 24 e0          	mov    -0x20(%rsp),%eax
  401474:	69 c0 54 76 00 00    	imul   $0x7654,%eax,%eax
  40147a:	89 44 24 e0          	mov    %eax,-0x20(%rsp)
  40147e:	8b 44 24 dc          	mov    -0x24(%rsp),%eax
  401482:	69 c0 f4 8f 00 00    	imul   $0x8ff4,%eax,%eax
  401488:	89 44 24 dc          	mov    %eax,-0x24(%rsp)
  40148c:	8b 44 24 f0          	mov    -0x10(%rsp),%eax
  401490:	69 c0 7f ad 00 00    	imul   $0xad7f,%eax,%eax
  401496:	89 44 24 f0          	mov    %eax,-0x10(%rsp)
  40149a:	8b 44 24 d8          	mov    -0x28(%rsp),%eax
  40149e:	69 c0 07 4d 00 00    	imul   $0x4d07,%eax,%eax
  4014a4:	89 44 24 d8          	mov    %eax,-0x28(%rsp)
  4014a8:	8b 44 24 e0          	mov    -0x20(%rsp),%eax
  4014ac:	69 c0 ec 8b 00 00    	imul   $0x8bec,%eax,%eax
  4014b2:	89 44 24 e0          	mov    %eax,-0x20(%rsp)
  4014b6:	8b 44 24 f4          	mov    -0xc(%rsp),%eax
  4014ba:	69 c0 90 1e 00 00    	imul   $0x1e90,%eax,%eax
  4014c0:	89 44 24 f4          	mov    %eax,-0xc(%rsp)
  4014c4:	8b 44 24 d8          	mov    -0x28(%rsp),%eax
  4014c8:	69 c0 b2 c5 00 00    	imul   $0xc5b2,%eax,%eax
  4014ce:	89 44 24 d8          	mov    %eax,-0x28(%rsp)
  4014d2:	8b 44 24 ec          	mov    -0x14(%rsp),%eax
  4014d6:	69 c0 2f 6e 00 00    	imul   $0x6e2f,%eax,%eax
  4014dc:	89 44 24 ec          	mov    %eax,-0x14(%rsp)
  4014e0:	8b 44 24 e0          	mov    -0x20(%rsp),%eax
  4014e4:	69 c0 64 54 00 00    	imul   $0x5464,%eax,%eax
  4014ea:	89 44 24 e0          	mov    %eax,-0x20(%rsp)
  4014ee:	8b 44 24 dc          	mov    -0x24(%rsp),%eax
  4014f2:	69 c0 dc 9d 00 00    	imul   $0x9ddc,%eax,%eax
  4014f8:	89 44 24 dc          	mov    %eax,-0x24(%rsp)
  4014fc:	8b 44 24 d8          	mov    -0x28(%rsp),%eax
  401500:	69 c0 84 83 00 00    	imul   $0x8384,%eax,%eax
  401506:	89 44 24 d8          	mov    %eax,-0x28(%rsp)
  40150a:	8b 44 24 d0          	mov    -0x30(%rsp),%eax
  40150e:	69 c0 5e 71 00 00    	imul   $0x715e,%eax,%eax
  401514:	89 44 24 d0          	mov    %eax,-0x30(%rsp)
  401518:	8b 44 24 dc          	mov    -0x24(%rsp),%eax
  40151c:	69 c0 ea e4 00 00    	imul   $0xe4ea,%eax,%eax
  401522:	89 44 24 dc          	mov    %eax,-0x24(%rsp)
  401526:	8b 44 24 e8          	mov    -0x18(%rsp),%eax
  40152a:	69 c0 12 ff 00 00    	imul   $0xff12,%eax,%eax
  401530:	89 44 24 e8          	mov    %eax,-0x18(%rsp)
  401534:	8b 44 24 dc          	mov    -0x24(%rsp),%eax
  401538:	69 c0 4a 3d 00 00    	imul   $0x3d4a,%eax,%eax
  40153e:	89 44 24 dc          	mov    %eax,-0x24(%rsp)
  401542:	8b 44 24 d8          	mov    -0x28(%rsp),%eax
  401546:	69 c0 83 57 00 00    	imul   $0x5783,%eax,%eax
  40154c:	89 44 24 d8          	mov    %eax,-0x28(%rsp)
  401550:	8b 44 24 ec          	mov    -0x14(%rsp),%eax
  401554:	69 c0 66 69 00 00    	imul   $0x6966,%eax,%eax
  40155a:	89 44 24 ec          	mov    %eax,-0x14(%rsp)
  40155e:	8b 44 24 e4          	mov    -0x1c(%rsp),%eax
  401562:	69 c0 b7 61 00 00    	imul   $0x61b7,%eax,%eax
  401568:	89 44 24 e4          	mov    %eax,-0x1c(%rsp)
  40156c:	8b 44 24 ec          	mov    -0x14(%rsp),%eax
  401570:	69 c0 0c 6d 00 00    	imul   $0x6d0c,%eax,%eax
  401576:	89 44 24 ec          	mov    %eax,-0x14(%rsp)
  40157a:	8b 44 24 d8          	mov    -0x28(%rsp),%eax
  40157e:	69 c0 79 9f 00 00    	imul   $0x9f79,%eax,%eax
  401584:	89 44 24 d8          	mov    %eax,-0x28(%rsp)
  401588:	8b 44 24 e4          	mov    -0x1c(%rsp),%eax
  40158c:	69 c0 fd b4 00 00    	imul   $0xb4fd,%eax,%eax
  401592:	89 44 24 e4          	mov    %eax,-0x1c(%rsp)
  401596:	8b 44 24 ec          	mov    -0x14(%rsp),%eax
  40159a:	69 c0 3b 6e 00 00    	imul   $0x6e3b,%eax,%eax
  4015a0:	89 44 24 ec          	mov    %eax,-0x14(%rsp)
  4015a4:	8b 44 24 d8          	mov    -0x28(%rsp),%eax
  4015a8:	69 c0 a2 7d 00 00    	imul   $0x7da2,%eax,%eax
  4015ae:	89 44 24 d8          	mov    %eax,-0x28(%rsp)
  4015b2:	8b 44 24 e0          	mov    -0x20(%rsp),%eax
  4015b6:	69 c0 86 13 00 00    	imul   $0x1386,%eax,%eax
  4015bc:	89 44 24 e0          	mov    %eax,-0x20(%rsp)
  4015c0:	8b 44 24 ec          	mov    -0x14(%rsp),%eax
  4015c4:	69 c0 27 62 00 00    	imul   $0x6227,%eax,%eax
  4015ca:	89 44 24 ec          	mov    %eax,-0x14(%rsp)
  4015ce:	8b 44 24 dc          	mov    -0x24(%rsp),%eax
  4015d2:	69 c0 a2 c6 00 00    	imul   $0xc6a2,%eax,%eax
  4015d8:	89 44 24 dc          	mov    %eax,-0x24(%rsp)
  4015dc:	8b 44 24 e8          	mov    -0x18(%rsp),%eax
  4015e0:	69 c0 8b a7 00 00    	imul   $0xa78b,%eax,%eax
  4015e6:	89 44 24 e8          	mov    %eax,-0x18(%rsp)
  4015ea:	8b 44 24 e0          	mov    -0x20(%rsp),%eax
  4015ee:	69 c0 fe 93 00 00    	imul   $0x93fe,%eax,%eax
  4015f4:	89 44 24 e0          	mov    %eax,-0x20(%rsp)
  4015f8:	8b 44 24 d0          	mov    -0x30(%rsp),%eax
  4015fc:	69 c0 ff 08 00 00    	imul   $0x8ff,%eax,%eax
  401602:	89 44 24 d0          	mov    %eax,-0x30(%rsp)
  401606:	8b 44 24 f4          	mov    -0xc(%rsp),%eax
  40160a:	69 c0 94 ce 00 00    	imul   $0xce94,%eax,%eax
  401610:	89 44 24 f4          	mov    %eax,-0xc(%rsp)
  401614:	8b 44 24 e0          	mov    -0x20(%rsp),%eax
  401618:	69 c0 5a ec 00 00    	imul   $0xec5a,%eax,%eax
  40161e:	89 44 24 e0          	mov    %eax,-0x20(%rsp)
  401622:	8b 44 24 e8          	mov    -0x18(%rsp),%eax
  401626:	69 c0 e7 f9 00 00    	imul   $0xf9e7,%eax,%eax
  40162c:	89 44 24 e8          	mov    %eax,-0x18(%rsp)
  401630:	8b 44 24 d4          	mov    -0x2c(%rsp),%eax
  401634:	69 c0 8f 0d 00 00    	imul   $0xd8f,%eax,%eax
  40163a:	89 44 24 d4          	mov    %eax,-0x2c(%rsp)
  40163e:	8b 44 24 d4          	mov    -0x2c(%rsp),%eax
  401642:	69 c0 a5 6c 00 00    	imul   $0x6ca5,%eax,%eax
  401648:	89 44 24 d4          	mov    %eax,-0x2c(%rsp)
  40164c:	8b 44 24 d0          	mov    -0x30(%rsp),%eax
  401650:	69 c0 5e 0a 00 00    	imul   $0xa5e,%eax,%eax
  401656:	89 44 24 d0          	mov    %eax,-0x30(%rsp)
  40165a:	8b 44 24 dc          	mov    -0x24(%rsp),%eax
  40165e:	69 c0 93 73 00 00    	imul   $0x7393,%eax,%eax
  401664:	89 44 24 dc          	mov    %eax,-0x24(%rsp)
  401668:	8b 44 24 e8          	mov    -0x18(%rsp),%eax
  40166c:	69 c0 27 ca 00 00    	imul   $0xca27,%eax,%eax
  401672:	89 44 24 e8          	mov    %eax,-0x18(%rsp)
  401676:	8b 44 24 f4          	mov    -0xc(%rsp),%eax
  40167a:	69 c0 0b 3a 00 00    	imul   $0x3a0b,%eax,%eax
  401680:	89 44 24 f4          	mov    %eax,-0xc(%rsp)
  401684:	8b 44 24 ec          	mov    -0x14(%rsp),%eax
  401688:	69 c0 39 be 00 00    	imul   $0xbe39,%eax,%eax
  40168e:	89 44 24 ec          	mov    %eax,-0x14(%rsp)
  401692:	8b 44 24 d0          	mov    -0x30(%rsp),%eax
  401696:	69 c0 d0 19 00 00    	imul   $0x19d0,%eax,%eax
  40169c:	89 44 24 d0          	mov    %eax,-0x30(%rsp)
  4016a0:	8b 44 24 e8          	mov    -0x18(%rsp),%eax
  4016a4:	69 c0 f4 fe 00 00    	imul   $0xfef4,%eax,%eax
  4016aa:	89 44 24 e8          	mov    %eax,-0x18(%rsp)
  4016ae:	8b 44 24 f0          	mov    -0x10(%rsp),%eax
  4016b2:	69 c0 0b 06 00 00    	imul   $0x60b,%eax,%eax
  4016b8:	89 44 24 f0          	mov    %eax,-0x10(%rsp)
  4016bc:	8b 44 24 d4          	mov    -0x2c(%rsp),%eax
  4016c0:	69 c0 72 18 00 00    	imul   $0x1872,%eax,%eax
  4016c6:	89 44 24 d4          	mov    %eax,-0x2c(%rsp)
  4016ca:	8b 44 24 dc          	mov    -0x24(%rsp),%eax
  4016ce:	69 c0 f6 32 00 00    	imul   $0x32f6,%eax,%eax
  4016d4:	89 44 24 dc          	mov    %eax,-0x24(%rsp)
  4016d8:	8b 44 24 e0          	mov    -0x20(%rsp),%eax
  4016dc:	69 c0 1a 2d 00 00    	imul   $0x2d1a,%eax,%eax
  4016e2:	89 44 24 e0          	mov    %eax,-0x20(%rsp)
  4016e6:	8b 44 24 f0          	mov    -0x10(%rsp),%eax
  4016ea:	69 c0 bb 67 00 00    	imul   $0x67bb,%eax,%eax
  4016f0:	89 44 24 f0          	mov    %eax,-0x10(%rsp)
  4016f4:	8b 44 24 f0          	mov    -0x10(%rsp),%eax
  4016f8:	69 c0 a2 27 00 00    	imul   $0x27a2,%eax,%eax
  4016fe:	89 44 24 f0          	mov    %eax,-0x10(%rsp)
  401702:	8b 44 24 d8          	mov    -0x28(%rsp),%eax
  401706:	69 c0 34 6f 00 00    	imul   $0x6f34,%eax,%eax
  40170c:	89 44 24 d8          	mov    %eax,-0x28(%rsp)
  401710:	8b 44 24 f4          	mov    -0xc(%rsp),%eax
  401714:	69 c0 41 bd 00 00    	imul   $0xbd41,%eax,%eax
  40171a:	89 44 24 f4          	mov    %eax,-0xc(%rsp)
  40171e:	8b 44 24 f4          	mov    -0xc(%rsp),%eax
  401722:	69 c0 cd af 00 00    	imul   $0xafcd,%eax,%eax
  401728:	89 44 24 f4          	mov    %eax,-0xc(%rsp)
  40172c:	8b 44 24 ec          	mov    -0x14(%rsp),%eax
  401730:	69 c0 f7 e7 00 00    	imul   $0xe7f7,%eax,%eax
  401736:	89 44 24 ec          	mov    %eax,-0x14(%rsp)
  40173a:	8b 44 24 d0          	mov    -0x30(%rsp),%eax
  40173e:	69 c0 fb 86 00 00    	imul   $0x86fb,%eax,%eax
  401744:	89 44 24 d0          	mov    %eax,-0x30(%rsp)
  401748:	8b 44 24 f0          	mov    -0x10(%rsp),%eax
  40174c:	69 c0 2f 05 00 00    	imul   $0x52f,%eax,%eax
  401752:	89 44 24 f0          	mov    %eax,-0x10(%rsp)
  401756:	8b 44 24 e8          	mov    -0x18(%rsp),%eax
  40175a:	69 c0 e8 f9 00 00    	imul   $0xf9e8,%eax,%eax
  401760:	89 44 24 e8          	mov    %eax,-0x18(%rsp)
  401764:	8b 44 24 e8          	mov    -0x18(%rsp),%eax
  401768:	69 c0 97 0e 00 00    	imul   $0xe97,%eax,%eax
  40176e:	89 44 24 e8          	mov    %eax,-0x18(%rsp)
  401772:	8b 44 24 e0          	mov    -0x20(%rsp),%eax
  401776:	69 c0 c8 e3 00 00    	imul   $0xe3c8,%eax,%eax
  40177c:	89 44 24 e0          	mov    %eax,-0x20(%rsp)
  401780:	8b 44 24 e0          	mov    -0x20(%rsp),%eax
  401784:	69 c0 2a f4 00 00    	imul   $0xf42a,%eax,%eax
  40178a:	89 44 24 e0          	mov    %eax,-0x20(%rsp)
  40178e:	8b 44 24 f0          	mov    -0x10(%rsp),%eax
  401792:	69 c0 0c b4 00 00    	imul   $0xb40c,%eax,%eax
  401798:	89 44 24 f0          	mov    %eax,-0x10(%rsp)
  40179c:	8b 44 24 e8          	mov    -0x18(%rsp),%eax
  4017a0:	69 c0 dd 83 00 00    	imul   $0x83dd,%eax,%eax
  4017a6:	89 44 24 e8          	mov    %eax,-0x18(%rsp)
  4017aa:	8b 44 24 ec          	mov    -0x14(%rsp),%eax
  4017ae:	69 c0 0d 2e 00 00    	imul   $0x2e0d,%eax,%eax
  4017b4:	89 44 24 ec          	mov    %eax,-0x14(%rsp)
  4017b8:	8b 44 24 e8          	mov    -0x18(%rsp),%eax
  4017bc:	69 c0 8c e8 00 00    	imul   $0xe88c,%eax,%eax
  4017c2:	89 44 24 e8          	mov    %eax,-0x18(%rsp)
  4017c6:	8b 44 24 dc          	mov    -0x24(%rsp),%eax
  4017ca:	69 c0 6b ca 00 00    	imul   $0xca6b,%eax,%eax
  4017d0:	89 44 24 dc          	mov    %eax,-0x24(%rsp)
  4017d4:	8b 44 24 dc          	mov    -0x24(%rsp),%eax
  4017d8:	69 c0 6b f7 00 00    	imul   $0xf76b,%eax,%eax
  4017de:	89 44 24 dc          	mov    %eax,-0x24(%rsp)
  4017e2:	8b 44 24 e8          	mov    -0x18(%rsp),%eax
  4017e6:	69 c0 61 45 00 00    	imul   $0x4561,%eax,%eax
  4017ec:	89 44 24 e8          	mov    %eax,-0x18(%rsp)
  4017f0:	ba 00 00 00 00       	mov    $0x0,%edx
  4017f5:	b8 00 00 00 00       	mov    $0x0,%eax
  4017fa:	83 fa 09             	cmp    $0x9,%edx
  4017fd:	77 0d                	ja     40180c <scramble+0x525>
  4017ff:	89 d1                	mov    %edx,%ecx
  401801:	8b 4c 8c d0          	mov    -0x30(%rsp,%rcx,4),%ecx
  401805:	01 c8                	add    %ecx,%eax
  401807:	83 c2 01             	add    $0x1,%edx
  40180a:	eb ee                	jmp    4017fa <scramble+0x513>
  40180c:	c3                   	retq   

000000000040180d <getbuf>:
  40180d:	48 83 ec 18          	sub    $0x18,%rsp
  401811:	48 89 e7             	mov    %rsp,%rdi
  401814:	e8 2c 02 00 00       	callq  401a45 <Gets>
  401819:	b8 01 00 00 00       	mov    $0x1,%eax
  40181e:	48 83 c4 18          	add    $0x18,%rsp
  401822:	c3                   	retq   

0000000000401823 <touch1>:
  401823:	48 83 ec 08          	sub    $0x8,%rsp
  401827:	c7 05 cb 2c 20 00 01 	movl   $0x1,0x202ccb(%rip)        # 6044fc <vlevel>
  40182e:	00 00 00 
  401831:	bf ca 2f 40 00       	mov    $0x402fca,%edi
  401836:	e8 95 f4 ff ff       	callq  400cd0 <puts@plt>
  40183b:	bf 01 00 00 00       	mov    $0x1,%edi
  401840:	e8 f3 03 00 00       	callq  401c38 <validate>
  401845:	bf 00 00 00 00       	mov    $0x0,%edi
  40184a:	e8 f1 f5 ff ff       	callq  400e40 <exit@plt>

000000000040184f <touch2>:
  40184f:	48 83 ec 08          	sub    $0x8,%rsp
  401853:	89 fe                	mov    %edi,%esi
  401855:	c7 05 9d 2c 20 00 02 	movl   $0x2,0x202c9d(%rip)        # 6044fc <vlevel>
  40185c:	00 00 00 
  40185f:	39 3d 9f 2c 20 00    	cmp    %edi,0x202c9f(%rip)        # 604504 <cookie>
  401865:	74 23                	je     40188a <touch2+0x3b>
  401867:	bf 18 30 40 00       	mov    $0x403018,%edi
  40186c:	b8 00 00 00 00       	mov    $0x0,%eax
  401871:	e8 8a f4 ff ff       	callq  400d00 <printf@plt>
  401876:	bf 02 00 00 00       	mov    $0x2,%edi
  40187b:	e8 6a 04 00 00       	callq  401cea <fail>
  401880:	bf 00 00 00 00       	mov    $0x0,%edi
  401885:	e8 b6 f5 ff ff       	callq  400e40 <exit@plt>
  40188a:	bf f0 2f 40 00       	mov    $0x402ff0,%edi
  40188f:	b8 00 00 00 00       	mov    $0x0,%eax
  401894:	e8 67 f4 ff ff       	callq  400d00 <printf@plt>
  401899:	bf 02 00 00 00       	mov    $0x2,%edi
  40189e:	e8 95 03 00 00       	callq  401c38 <validate>
  4018a3:	eb db                	jmp    401880 <touch2+0x31>

00000000004018a5 <hexmatch>:
  4018a5:	41 54                	push   %r12
  4018a7:	55                   	push   %rbp
  4018a8:	53                   	push   %rbx
  4018a9:	48 83 ec 70          	sub    $0x70,%rsp
  4018ad:	89 fd                	mov    %edi,%ebp
  4018af:	48 89 f3             	mov    %rsi,%rbx
  4018b2:	e8 f9 f4 ff ff       	callq  400db0 <random@plt>
  4018b7:	48 89 c1             	mov    %rax,%rcx
  4018ba:	48 ba 0b d7 a3 70 3d 	movabs $0xa3d70a3d70a3d70b,%rdx
  4018c1:	0a d7 a3 
  4018c4:	48 f7 ea             	imul   %rdx
  4018c7:	48 01 ca             	add    %rcx,%rdx
  4018ca:	48 c1 fa 06          	sar    $0x6,%rdx
  4018ce:	48 89 c8             	mov    %rcx,%rax
  4018d1:	48 c1 f8 3f          	sar    $0x3f,%rax
  4018d5:	48 29 c2             	sub    %rax,%rdx
  4018d8:	48 8d 04 92          	lea    (%rdx,%rdx,4),%rax
  4018dc:	48 8d 14 80          	lea    (%rax,%rax,4),%rdx
  4018e0:	48 8d 04 95 00 00 00 	lea    0x0(,%rdx,4),%rax
  4018e7:	00 
  4018e8:	48 29 c1             	sub    %rax,%rcx
  4018eb:	4c 8d 24 0c          	lea    (%rsp,%rcx,1),%r12
  4018ef:	89 ea                	mov    %ebp,%edx
  4018f1:	be e7 2f 40 00       	mov    $0x402fe7,%esi
  4018f6:	4c 89 e7             	mov    %r12,%rdi
  4018f9:	b8 00 00 00 00       	mov    $0x0,%eax
  4018fe:	e8 2d f5 ff ff       	callq  400e30 <sprintf@plt>
  401903:	ba 09 00 00 00       	mov    $0x9,%edx
  401908:	4c 89 e6             	mov    %r12,%rsi
  40190b:	48 89 df             	mov    %rbx,%rdi
  40190e:	e8 9d f3 ff ff       	callq  400cb0 <strncmp@plt>
  401913:	85 c0                	test   %eax,%eax
  401915:	0f 94 c0             	sete   %al
  401918:	0f b6 c0             	movzbl %al,%eax
  40191b:	48 83 c4 70          	add    $0x70,%rsp
  40191f:	5b                   	pop    %rbx
  401920:	5d                   	pop    %rbp
  401921:	41 5c                	pop    %r12
  401923:	c3                   	retq   

0000000000401924 <touch3>:
  401924:	53                   	push   %rbx
  401925:	48 89 fb             	mov    %rdi,%rbx
  401928:	c7 05 ca 2b 20 00 03 	movl   $0x3,0x202bca(%rip)        # 6044fc <vlevel>
  40192f:	00 00 00 
  401932:	48 89 fe             	mov    %rdi,%rsi
  401935:	8b 3d c9 2b 20 00    	mov    0x202bc9(%rip),%edi        # 604504 <cookie>
  40193b:	e8 65 ff ff ff       	callq  4018a5 <hexmatch>
  401940:	85 c0                	test   %eax,%eax
  401942:	74 26                	je     40196a <touch3+0x46>
  401944:	48 89 de             	mov    %rbx,%rsi
  401947:	bf 40 30 40 00       	mov    $0x403040,%edi
  40194c:	b8 00 00 00 00       	mov    $0x0,%eax
  401951:	e8 aa f3 ff ff       	callq  400d00 <printf@plt>
  401956:	bf 03 00 00 00       	mov    $0x3,%edi
  40195b:	e8 d8 02 00 00       	callq  401c38 <validate>
  401960:	bf 00 00 00 00       	mov    $0x0,%edi
  401965:	e8 d6 f4 ff ff       	callq  400e40 <exit@plt>
  40196a:	48 89 de             	mov    %rbx,%rsi
  40196d:	bf 68 30 40 00       	mov    $0x403068,%edi
  401972:	b8 00 00 00 00       	mov    $0x0,%eax
  401977:	e8 84 f3 ff ff       	callq  400d00 <printf@plt>
  40197c:	bf 03 00 00 00       	mov    $0x3,%edi
  401981:	e8 64 03 00 00       	callq  401cea <fail>
  401986:	eb d8                	jmp    401960 <touch3+0x3c>

0000000000401988 <test>:
  401988:	48 83 ec 08          	sub    $0x8,%rsp
  40198c:	b8 00 00 00 00       	mov    $0x0,%eax
  401991:	e8 77 fe ff ff       	callq  40180d <getbuf>
  401996:	89 c6                	mov    %eax,%esi
  401998:	bf 90 30 40 00       	mov    $0x403090,%edi
  40199d:	b8 00 00 00 00       	mov    $0x0,%eax
  4019a2:	e8 59 f3 ff ff       	callq  400d00 <printf@plt>
  4019a7:	48 83 c4 08          	add    $0x8,%rsp
  4019ab:	c3                   	retq   

00000000004019ac <save_char>:
  4019ac:	8b 05 72 37 20 00    	mov    0x203772(%rip),%eax        # 605124 <gets_cnt>
  4019b2:	3d ff 03 00 00       	cmp    $0x3ff,%eax
  4019b7:	7f 49                	jg     401a02 <save_char+0x56>
  4019b9:	89 f9                	mov    %edi,%ecx
  4019bb:	c0 e9 04             	shr    $0x4,%cl
  4019be:	8d 14 40             	lea    (%rax,%rax,2),%edx
  4019c1:	83 e1 0f             	and    $0xf,%ecx
  4019c4:	0f b6 b1 b0 33 40 00 	movzbl 0x4033b0(%rcx),%esi
  4019cb:	48 63 ca             	movslq %edx,%rcx
  4019ce:	40 88 b1 20 45 60 00 	mov    %sil,0x604520(%rcx)
  4019d5:	8d 4a 01             	lea    0x1(%rdx),%ecx
  4019d8:	83 e7 0f             	and    $0xf,%edi
  4019db:	0f b6 b7 b0 33 40 00 	movzbl 0x4033b0(%rdi),%esi
  4019e2:	48 63 c9             	movslq %ecx,%rcx
  4019e5:	40 88 b1 20 45 60 00 	mov    %sil,0x604520(%rcx)
  4019ec:	83 c2 02             	add    $0x2,%edx
  4019ef:	48 63 d2             	movslq %edx,%rdx
  4019f2:	c6 82 20 45 60 00 20 	movb   $0x20,0x604520(%rdx)
  4019f9:	83 c0 01             	add    $0x1,%eax
  4019fc:	89 05 22 37 20 00    	mov    %eax,0x203722(%rip)        # 605124 <gets_cnt>
  401a02:	c3                   	retq   

0000000000401a03 <save_term>:
  401a03:	8b 05 1b 37 20 00    	mov    0x20371b(%rip),%eax        # 605124 <gets_cnt>
  401a09:	8d 04 40             	lea    (%rax,%rax,2),%eax
  401a0c:	48 98                	cltq   
  401a0e:	c6 80 20 45 60 00 00 	movb   $0x0,0x604520(%rax)
  401a15:	c3                   	retq   

0000000000401a16 <check_fail>:
  401a16:	48 83 ec 08          	sub    $0x8,%rsp
  401a1a:	0f be 35 07 37 20 00 	movsbl 0x203707(%rip),%esi        # 605128 <target_prefix>
  401a21:	b9 20 45 60 00       	mov    $0x604520,%ecx
  401a26:	8b 15 cc 2a 20 00    	mov    0x202acc(%rip),%edx        # 6044f8 <check_level>
  401a2c:	bf b3 30 40 00       	mov    $0x4030b3,%edi
  401a31:	b8 00 00 00 00       	mov    $0x0,%eax
  401a36:	e8 c5 f2 ff ff       	callq  400d00 <printf@plt>
  401a3b:	bf 01 00 00 00       	mov    $0x1,%edi
  401a40:	e8 fb f3 ff ff       	callq  400e40 <exit@plt>

0000000000401a45 <Gets>:
  401a45:	41 54                	push   %r12
  401a47:	55                   	push   %rbp
  401a48:	53                   	push   %rbx
  401a49:	49 89 fc             	mov    %rdi,%r12
  401a4c:	c7 05 ce 36 20 00 00 	movl   $0x0,0x2036ce(%rip)        # 605124 <gets_cnt>
  401a53:	00 00 00 
  401a56:	48 89 fb             	mov    %rdi,%rbx
  401a59:	48 8b 3d 90 2a 20 00 	mov    0x202a90(%rip),%rdi        # 6044f0 <infile>
  401a60:	e8 fb f3 ff ff       	callq  400e60 <getc@plt>
  401a65:	83 f8 ff             	cmp    $0xffffffff,%eax
  401a68:	74 18                	je     401a82 <Gets+0x3d>
  401a6a:	83 f8 0a             	cmp    $0xa,%eax
  401a6d:	74 13                	je     401a82 <Gets+0x3d>
  401a6f:	48 8d 6b 01          	lea    0x1(%rbx),%rbp
  401a73:	88 03                	mov    %al,(%rbx)
  401a75:	0f b6 f8             	movzbl %al,%edi
  401a78:	e8 2f ff ff ff       	callq  4019ac <save_char>
  401a7d:	48 89 eb             	mov    %rbp,%rbx
  401a80:	eb d7                	jmp    401a59 <Gets+0x14>
  401a82:	c6 03 00             	movb   $0x0,(%rbx)
  401a85:	b8 00 00 00 00       	mov    $0x0,%eax
  401a8a:	e8 74 ff ff ff       	callq  401a03 <save_term>
  401a8f:	4c 89 e0             	mov    %r12,%rax
  401a92:	5b                   	pop    %rbx
  401a93:	5d                   	pop    %rbp
  401a94:	41 5c                	pop    %r12
  401a96:	c3                   	retq   

0000000000401a97 <notify_server>:
  401a97:	83 3d 6a 2a 20 00 00 	cmpl   $0x0,0x202a6a(%rip)        # 604508 <is_checker>
  401a9e:	0f 85 93 01 00 00    	jne    401c37 <notify_server+0x1a0>
  401aa4:	55                   	push   %rbp
  401aa5:	53                   	push   %rbx
  401aa6:	48 81 ec 08 40 00 00 	sub    $0x4008,%rsp
  401aad:	89 fb                	mov    %edi,%ebx
  401aaf:	81 3d 6b 36 20 00 9c 	cmpl   $0x1f9c,0x20366b(%rip)        # 605124 <gets_cnt>
  401ab6:	1f 00 00 
  401ab9:	0f 8f ad 00 00 00    	jg     401b6c <notify_server+0xd5>
  401abf:	44 0f be 0d 61 36 20 	movsbl 0x203661(%rip),%r9d        # 605128 <target_prefix>
  401ac6:	00 
  401ac7:	83 3d ba 29 20 00 00 	cmpl   $0x0,0x2029ba(%rip)        # 604488 <notify>
  401ace:	0f 84 b1 00 00 00    	je     401b85 <notify_server+0xee>
  401ad4:	44 8b 05 25 2a 20 00 	mov    0x202a25(%rip),%r8d        # 604500 <authkey>
  401adb:	85 db                	test   %ebx,%ebx
  401add:	0f 84 ad 00 00 00    	je     401b90 <notify_server+0xf9>
  401ae3:	bd ce 30 40 00       	mov    $0x4030ce,%ebp
  401ae8:	68 20 45 60 00       	pushq  $0x604520
  401aed:	56                   	push   %rsi
  401aee:	48 89 e9             	mov    %rbp,%rcx
  401af1:	8b 15 51 26 20 00    	mov    0x202651(%rip),%edx        # 604148 <target_id>
  401af7:	be d3 30 40 00       	mov    $0x4030d3,%esi
  401afc:	48 8d bc 24 10 20 00 	lea    0x2010(%rsp),%rdi
  401b03:	00 
  401b04:	b8 00 00 00 00       	mov    $0x0,%eax
  401b09:	e8 22 f3 ff ff       	callq  400e30 <sprintf@plt>
  401b0e:	48 83 c4 10          	add    $0x10,%rsp
  401b12:	83 3d 6f 29 20 00 00 	cmpl   $0x0,0x20296f(%rip)        # 604488 <notify>
  401b19:	0f 84 ab 00 00 00    	je     401bca <notify_server+0x133>
  401b1f:	85 db                	test   %ebx,%ebx
  401b21:	0f 84 8f 00 00 00    	je     401bb6 <notify_server+0x11f>
  401b27:	49 89 e1             	mov    %rsp,%r9
  401b2a:	41 b8 00 00 00 00    	mov    $0x0,%r8d
  401b30:	48 8d 8c 24 00 20 00 	lea    0x2000(%rsp),%rcx
  401b37:	00 
  401b38:	48 8b 15 11 26 20 00 	mov    0x202611(%rip),%rdx        # 604150 <lab>
  401b3f:	48 8b 35 12 26 20 00 	mov    0x202612(%rip),%rsi        # 604158 <course>
  401b46:	48 8b 3d f3 25 20 00 	mov    0x2025f3(%rip),%rdi        # 604140 <user_id>
  401b4d:	e8 e5 0f 00 00       	callq  402b37 <driver_post>
  401b52:	85 c0                	test   %eax,%eax
  401b54:	78 44                	js     401b9a <notify_server+0x103>
  401b56:	bf 18 32 40 00       	mov    $0x403218,%edi
  401b5b:	e8 70 f1 ff ff       	callq  400cd0 <puts@plt>
  401b60:	bf fb 30 40 00       	mov    $0x4030fb,%edi
  401b65:	e8 66 f1 ff ff       	callq  400cd0 <puts@plt>
  401b6a:	eb 54                	jmp    401bc0 <notify_server+0x129>
  401b6c:	bf e8 31 40 00       	mov    $0x4031e8,%edi
  401b71:	b8 00 00 00 00       	mov    $0x0,%eax
  401b76:	e8 85 f1 ff ff       	callq  400d00 <printf@plt>
  401b7b:	bf 01 00 00 00       	mov    $0x1,%edi
  401b80:	e8 bb f2 ff ff       	callq  400e40 <exit@plt>
  401b85:	41 b8 ff ff ff ff    	mov    $0xffffffff,%r8d
  401b8b:	e9 4b ff ff ff       	jmpq   401adb <notify_server+0x44>
  401b90:	bd c9 30 40 00       	mov    $0x4030c9,%ebp
  401b95:	e9 4e ff ff ff       	jmpq   401ae8 <notify_server+0x51>
  401b9a:	48 89 e6             	mov    %rsp,%rsi
  401b9d:	bf ef 30 40 00       	mov    $0x4030ef,%edi
  401ba2:	b8 00 00 00 00       	mov    $0x0,%eax
  401ba7:	e8 54 f1 ff ff       	callq  400d00 <printf@plt>
  401bac:	bf 01 00 00 00       	mov    $0x1,%edi
  401bb1:	e8 8a f2 ff ff       	callq  400e40 <exit@plt>
  401bb6:	bf 05 31 40 00       	mov    $0x403105,%edi
  401bbb:	e8 10 f1 ff ff       	callq  400cd0 <puts@plt>
  401bc0:	48 81 c4 08 40 00 00 	add    $0x4008,%rsp
  401bc7:	5b                   	pop    %rbx
  401bc8:	5d                   	pop    %rbp
  401bc9:	c3                   	retq   
  401bca:	48 89 ee             	mov    %rbp,%rsi
  401bcd:	bf 50 32 40 00       	mov    $0x403250,%edi
  401bd2:	b8 00 00 00 00       	mov    $0x0,%eax
  401bd7:	e8 24 f1 ff ff       	callq  400d00 <printf@plt>
  401bdc:	48 8b 35 5d 25 20 00 	mov    0x20255d(%rip),%rsi        # 604140 <user_id>
  401be3:	bf 0c 31 40 00       	mov    $0x40310c,%edi
  401be8:	b8 00 00 00 00       	mov    $0x0,%eax
  401bed:	e8 0e f1 ff ff       	callq  400d00 <printf@plt>
  401bf2:	48 8b 35 5f 25 20 00 	mov    0x20255f(%rip),%rsi        # 604158 <course>
  401bf9:	bf 19 31 40 00       	mov    $0x403119,%edi
  401bfe:	b8 00 00 00 00       	mov    $0x0,%eax
  401c03:	e8 f8 f0 ff ff       	callq  400d00 <printf@plt>
  401c08:	48 8b 35 41 25 20 00 	mov    0x202541(%rip),%rsi        # 604150 <lab>
  401c0f:	bf 25 31 40 00       	mov    $0x403125,%edi
  401c14:	b8 00 00 00 00       	mov    $0x0,%eax
  401c19:	e8 e2 f0 ff ff       	callq  400d00 <printf@plt>
  401c1e:	48 8d b4 24 00 20 00 	lea    0x2000(%rsp),%rsi
  401c25:	00 
  401c26:	bf 2e 31 40 00       	mov    $0x40312e,%edi
  401c2b:	b8 00 00 00 00       	mov    $0x0,%eax
  401c30:	e8 cb f0 ff ff       	callq  400d00 <printf@plt>
  401c35:	eb 89                	jmp    401bc0 <notify_server+0x129>
  401c37:	c3                   	retq   

0000000000401c38 <validate>:
  401c38:	53                   	push   %rbx
  401c39:	89 fb                	mov    %edi,%ebx
  401c3b:	83 3d c6 28 20 00 00 	cmpl   $0x0,0x2028c6(%rip)        # 604508 <is_checker>
  401c42:	74 60                	je     401ca4 <validate+0x6c>
  401c44:	39 3d b2 28 20 00    	cmp    %edi,0x2028b2(%rip)        # 6044fc <vlevel>
  401c4a:	75 29                	jne    401c75 <validate+0x3d>
  401c4c:	8b 35 a6 28 20 00    	mov    0x2028a6(%rip),%esi        # 6044f8 <check_level>
  401c52:	39 fe                	cmp    %edi,%esi
  401c54:	75 33                	jne    401c89 <validate+0x51>
  401c56:	0f be 35 cb 34 20 00 	movsbl 0x2034cb(%rip),%esi        # 605128 <target_prefix>
  401c5d:	b9 20 45 60 00       	mov    $0x604520,%ecx
  401c62:	89 fa                	mov    %edi,%edx
  401c64:	bf 58 31 40 00       	mov    $0x403158,%edi
  401c69:	b8 00 00 00 00       	mov    $0x0,%eax
  401c6e:	e8 8d f0 ff ff       	callq  400d00 <printf@plt>
  401c73:	5b                   	pop    %rbx
  401c74:	c3                   	retq   
  401c75:	bf 3a 31 40 00       	mov    $0x40313a,%edi
  401c7a:	e8 51 f0 ff ff       	callq  400cd0 <puts@plt>
  401c7f:	b8 00 00 00 00       	mov    $0x0,%eax
  401c84:	e8 8d fd ff ff       	callq  401a16 <check_fail>
  401c89:	89 fa                	mov    %edi,%edx
  401c8b:	bf 78 32 40 00       	mov    $0x403278,%edi
  401c90:	b8 00 00 00 00       	mov    $0x0,%eax
  401c95:	e8 66 f0 ff ff       	callq  400d00 <printf@plt>
  401c9a:	b8 00 00 00 00       	mov    $0x0,%eax
  401c9f:	e8 72 fd ff ff       	callq  401a16 <check_fail>
  401ca4:	39 3d 52 28 20 00    	cmp    %edi,0x202852(%rip)        # 6044fc <vlevel>
  401caa:	74 18                	je     401cc4 <validate+0x8c>
  401cac:	bf 3a 31 40 00       	mov    $0x40313a,%edi
  401cb1:	e8 1a f0 ff ff       	callq  400cd0 <puts@plt>
  401cb6:	89 de                	mov    %ebx,%esi
  401cb8:	bf 00 00 00 00       	mov    $0x0,%edi
  401cbd:	e8 d5 fd ff ff       	callq  401a97 <notify_server>
  401cc2:	eb af                	jmp    401c73 <validate+0x3b>
  401cc4:	0f be 15 5d 34 20 00 	movsbl 0x20345d(%rip),%edx        # 605128 <target_prefix>
  401ccb:	89 fe                	mov    %edi,%esi
  401ccd:	bf a0 32 40 00       	mov    $0x4032a0,%edi
  401cd2:	b8 00 00 00 00       	mov    $0x0,%eax
  401cd7:	e8 24 f0 ff ff       	callq  400d00 <printf@plt>
  401cdc:	89 de                	mov    %ebx,%esi
  401cde:	bf 01 00 00 00       	mov    $0x1,%edi
  401ce3:	e8 af fd ff ff       	callq  401a97 <notify_server>
  401ce8:	eb 89                	jmp    401c73 <validate+0x3b>

0000000000401cea <fail>:
  401cea:	48 83 ec 08          	sub    $0x8,%rsp
  401cee:	83 3d 13 28 20 00 00 	cmpl   $0x0,0x202813(%rip)        # 604508 <is_checker>
  401cf5:	75 11                	jne    401d08 <fail+0x1e>
  401cf7:	89 fe                	mov    %edi,%esi
  401cf9:	bf 00 00 00 00       	mov    $0x0,%edi
  401cfe:	e8 94 fd ff ff       	callq  401a97 <notify_server>
  401d03:	48 83 c4 08          	add    $0x8,%rsp
  401d07:	c3                   	retq   
  401d08:	b8 00 00 00 00       	mov    $0x0,%eax
  401d0d:	e8 04 fd ff ff       	callq  401a16 <check_fail>

0000000000401d12 <bushandler>:
  401d12:	48 83 ec 08          	sub    $0x8,%rsp
  401d16:	83 3d eb 27 20 00 00 	cmpl   $0x0,0x2027eb(%rip)        # 604508 <is_checker>
  401d1d:	74 14                	je     401d33 <bushandler+0x21>
  401d1f:	bf 6d 31 40 00       	mov    $0x40316d,%edi
  401d24:	e8 a7 ef ff ff       	callq  400cd0 <puts@plt>
  401d29:	b8 00 00 00 00       	mov    $0x0,%eax
  401d2e:	e8 e3 fc ff ff       	callq  401a16 <check_fail>
  401d33:	bf d8 32 40 00       	mov    $0x4032d8,%edi
  401d38:	e8 93 ef ff ff       	callq  400cd0 <puts@plt>
  401d3d:	bf 77 31 40 00       	mov    $0x403177,%edi
  401d42:	e8 89 ef ff ff       	callq  400cd0 <puts@plt>
  401d47:	be 00 00 00 00       	mov    $0x0,%esi
  401d4c:	bf 00 00 00 00       	mov    $0x0,%edi
  401d51:	e8 41 fd ff ff       	callq  401a97 <notify_server>
  401d56:	bf 01 00 00 00       	mov    $0x1,%edi
  401d5b:	e8 e0 f0 ff ff       	callq  400e40 <exit@plt>

0000000000401d60 <seghandler>:
  401d60:	48 83 ec 08          	sub    $0x8,%rsp
  401d64:	83 3d 9d 27 20 00 00 	cmpl   $0x0,0x20279d(%rip)        # 604508 <is_checker>
  401d6b:	74 14                	je     401d81 <seghandler+0x21>
  401d6d:	bf 8d 31 40 00       	mov    $0x40318d,%edi
  401d72:	e8 59 ef ff ff       	callq  400cd0 <puts@plt>
  401d77:	b8 00 00 00 00       	mov    $0x0,%eax
  401d7c:	e8 95 fc ff ff       	callq  401a16 <check_fail>
  401d81:	bf f8 32 40 00       	mov    $0x4032f8,%edi
  401d86:	e8 45 ef ff ff       	callq  400cd0 <puts@plt>
  401d8b:	bf 77 31 40 00       	mov    $0x403177,%edi
  401d90:	e8 3b ef ff ff       	callq  400cd0 <puts@plt>
  401d95:	be 00 00 00 00       	mov    $0x0,%esi
  401d9a:	bf 00 00 00 00       	mov    $0x0,%edi
  401d9f:	e8 f3 fc ff ff       	callq  401a97 <notify_server>
  401da4:	bf 01 00 00 00       	mov    $0x1,%edi
  401da9:	e8 92 f0 ff ff       	callq  400e40 <exit@plt>

0000000000401dae <illegalhandler>:
  401dae:	48 83 ec 08          	sub    $0x8,%rsp
  401db2:	83 3d 4f 27 20 00 00 	cmpl   $0x0,0x20274f(%rip)        # 604508 <is_checker>
  401db9:	74 14                	je     401dcf <illegalhandler+0x21>
  401dbb:	bf a0 31 40 00       	mov    $0x4031a0,%edi
  401dc0:	e8 0b ef ff ff       	callq  400cd0 <puts@plt>
  401dc5:	b8 00 00 00 00       	mov    $0x0,%eax
  401dca:	e8 47 fc ff ff       	callq  401a16 <check_fail>
  401dcf:	bf 20 33 40 00       	mov    $0x403320,%edi
  401dd4:	e8 f7 ee ff ff       	callq  400cd0 <puts@plt>
  401dd9:	bf 77 31 40 00       	mov    $0x403177,%edi
  401dde:	e8 ed ee ff ff       	callq  400cd0 <puts@plt>
  401de3:	be 00 00 00 00       	mov    $0x0,%esi
  401de8:	bf 00 00 00 00       	mov    $0x0,%edi
  401ded:	e8 a5 fc ff ff       	callq  401a97 <notify_server>
  401df2:	bf 01 00 00 00       	mov    $0x1,%edi
  401df7:	e8 44 f0 ff ff       	callq  400e40 <exit@plt>

0000000000401dfc <sigalrmhandler>:
  401dfc:	48 83 ec 08          	sub    $0x8,%rsp
  401e00:	83 3d 01 27 20 00 00 	cmpl   $0x0,0x202701(%rip)        # 604508 <is_checker>
  401e07:	74 14                	je     401e1d <sigalrmhandler+0x21>
  401e09:	bf b4 31 40 00       	mov    $0x4031b4,%edi
  401e0e:	e8 bd ee ff ff       	callq  400cd0 <puts@plt>
  401e13:	b8 00 00 00 00       	mov    $0x0,%eax
  401e18:	e8 f9 fb ff ff       	callq  401a16 <check_fail>
  401e1d:	be 05 00 00 00       	mov    $0x5,%esi
  401e22:	bf 50 33 40 00       	mov    $0x403350,%edi
  401e27:	b8 00 00 00 00       	mov    $0x0,%eax
  401e2c:	e8 cf ee ff ff       	callq  400d00 <printf@plt>
  401e31:	be 00 00 00 00       	mov    $0x0,%esi
  401e36:	bf 00 00 00 00       	mov    $0x0,%edi
  401e3b:	e8 57 fc ff ff       	callq  401a97 <notify_server>
  401e40:	bf 01 00 00 00       	mov    $0x1,%edi
  401e45:	e8 f6 ef ff ff       	callq  400e40 <exit@plt>

0000000000401e4a <launch>:
  401e4a:	55                   	push   %rbp
  401e4b:	48 89 e5             	mov    %rsp,%rbp
  401e4e:	48 89 fa             	mov    %rdi,%rdx
  401e51:	48 8d 47 17          	lea    0x17(%rdi),%rax
  401e55:	48 83 e0 f0          	and    $0xfffffffffffffff0,%rax
  401e59:	48 29 c4             	sub    %rax,%rsp
  401e5c:	48 8d 7c 24 0f       	lea    0xf(%rsp),%rdi
  401e61:	48 83 e7 f0          	and    $0xfffffffffffffff0,%rdi
  401e65:	be f4 00 00 00       	mov    $0xf4,%esi
  401e6a:	e8 a1 ee ff ff       	callq  400d10 <memset@plt>
  401e6f:	48 8b 05 2a 26 20 00 	mov    0x20262a(%rip),%rax        # 6044a0 <stdin@@GLIBC_2.2.5>
  401e76:	48 39 05 73 26 20 00 	cmp    %rax,0x202673(%rip)        # 6044f0 <infile>
  401e7d:	74 29                	je     401ea8 <launch+0x5e>
  401e7f:	c7 05 73 26 20 00 00 	movl   $0x0,0x202673(%rip)        # 6044fc <vlevel>
  401e86:	00 00 00 
  401e89:	b8 00 00 00 00       	mov    $0x0,%eax
  401e8e:	e8 f5 fa ff ff       	callq  401988 <test>
  401e93:	83 3d 6e 26 20 00 00 	cmpl   $0x0,0x20266e(%rip)        # 604508 <is_checker>
  401e9a:	75 1d                	jne    401eb9 <launch+0x6f>
  401e9c:	bf d4 31 40 00       	mov    $0x4031d4,%edi
  401ea1:	e8 2a ee ff ff       	callq  400cd0 <puts@plt>
  401ea6:	c9                   	leaveq 
  401ea7:	c3                   	retq   
  401ea8:	bf bc 31 40 00       	mov    $0x4031bc,%edi
  401ead:	b8 00 00 00 00       	mov    $0x0,%eax
  401eb2:	e8 49 ee ff ff       	callq  400d00 <printf@plt>
  401eb7:	eb c6                	jmp    401e7f <launch+0x35>
  401eb9:	bf c9 31 40 00       	mov    $0x4031c9,%edi
  401ebe:	e8 0d ee ff ff       	callq  400cd0 <puts@plt>
  401ec3:	b8 00 00 00 00       	mov    $0x0,%eax
  401ec8:	e8 49 fb ff ff       	callq  401a16 <check_fail>

0000000000401ecd <stable_launch>:
  401ecd:	53                   	push   %rbx
  401ece:	48 89 3d 13 26 20 00 	mov    %rdi,0x202613(%rip)        # 6044e8 <global_offset>
  401ed5:	41 b9 00 00 00 00    	mov    $0x0,%r9d
  401edb:	41 b8 00 00 00 00    	mov    $0x0,%r8d
  401ee1:	b9 32 01 00 00       	mov    $0x132,%ecx
  401ee6:	ba 07 00 00 00       	mov    $0x7,%edx
  401eeb:	be 00 00 10 00       	mov    $0x100000,%esi
  401ef0:	bf 00 60 58 55       	mov    $0x55586000,%edi
  401ef5:	e8 f6 ed ff ff       	callq  400cf0 <mmap@plt>
  401efa:	48 89 c3             	mov    %rax,%rbx
  401efd:	48 3d 00 60 58 55    	cmp    $0x55586000,%rax
  401f03:	75 43                	jne    401f48 <stable_launch+0x7b>
  401f05:	48 8d 90 f8 ff 0f 00 	lea    0xffff8(%rax),%rdx
  401f0c:	48 89 15 1d 32 20 00 	mov    %rdx,0x20321d(%rip)        # 605130 <stack_top>
  401f13:	48 89 e0             	mov    %rsp,%rax
  401f16:	48 89 d4             	mov    %rdx,%rsp
  401f19:	48 89 c2             	mov    %rax,%rdx
  401f1c:	48 89 15 bd 25 20 00 	mov    %rdx,0x2025bd(%rip)        # 6044e0 <global_save_stack>
  401f23:	48 8b 3d be 25 20 00 	mov    0x2025be(%rip),%rdi        # 6044e8 <global_offset>
  401f2a:	e8 1b ff ff ff       	callq  401e4a <launch>
  401f2f:	48 8b 05 aa 25 20 00 	mov    0x2025aa(%rip),%rax        # 6044e0 <global_save_stack>
  401f36:	48 89 c4             	mov    %rax,%rsp
  401f39:	be 00 00 10 00       	mov    $0x100000,%esi
  401f3e:	48 89 df             	mov    %rbx,%rdi
  401f41:	e8 8a ee ff ff       	callq  400dd0 <munmap@plt>
  401f46:	5b                   	pop    %rbx
  401f47:	c3                   	retq   
  401f48:	be 00 00 10 00       	mov    $0x100000,%esi
  401f4d:	48 89 c7             	mov    %rax,%rdi
  401f50:	e8 7b ee ff ff       	callq  400dd0 <munmap@plt>
  401f55:	ba 00 60 58 55       	mov    $0x55586000,%edx
  401f5a:	be 88 33 40 00       	mov    $0x403388,%esi
  401f5f:	48 8b 3d 5a 25 20 00 	mov    0x20255a(%rip),%rdi        # 6044c0 <stderr@@GLIBC_2.2.5>
  401f66:	b8 00 00 00 00       	mov    $0x0,%eax
  401f6b:	e8 00 ee ff ff       	callq  400d70 <fprintf@plt>
  401f70:	bf 01 00 00 00       	mov    $0x1,%edi
  401f75:	e8 c6 ee ff ff       	callq  400e40 <exit@plt>

0000000000401f7a <rio_readinitb>:
  401f7a:	89 37                	mov    %esi,(%rdi)
  401f7c:	c7 47 04 00 00 00 00 	movl   $0x0,0x4(%rdi)
  401f83:	48 8d 47 10          	lea    0x10(%rdi),%rax
  401f87:	48 89 47 08          	mov    %rax,0x8(%rdi)
  401f8b:	c3                   	retq   

0000000000401f8c <sigalrm_handler>:
  401f8c:	48 83 ec 08          	sub    $0x8,%rsp
  401f90:	ba 00 00 00 00       	mov    $0x0,%edx
  401f95:	be c0 33 40 00       	mov    $0x4033c0,%esi
  401f9a:	48 8b 3d 1f 25 20 00 	mov    0x20251f(%rip),%rdi        # 6044c0 <stderr@@GLIBC_2.2.5>
  401fa1:	b8 00 00 00 00       	mov    $0x0,%eax
  401fa6:	e8 c5 ed ff ff       	callq  400d70 <fprintf@plt>
  401fab:	bf 01 00 00 00       	mov    $0x1,%edi
  401fb0:	e8 8b ee ff ff       	callq  400e40 <exit@plt>

0000000000401fb5 <urlencode>:
  401fb5:	41 54                	push   %r12
  401fb7:	55                   	push   %rbp
  401fb8:	53                   	push   %rbx
  401fb9:	48 83 ec 10          	sub    $0x10,%rsp
  401fbd:	48 89 fb             	mov    %rdi,%rbx
  401fc0:	48 89 f5             	mov    %rsi,%rbp
  401fc3:	48 c7 c1 ff ff ff ff 	mov    $0xffffffffffffffff,%rcx
  401fca:	b8 00 00 00 00       	mov    $0x0,%eax
  401fcf:	f2 ae                	repnz scas %es:(%rdi),%al
  401fd1:	48 89 ce             	mov    %rcx,%rsi
  401fd4:	48 f7 d6             	not    %rsi
  401fd7:	8d 46 ff             	lea    -0x1(%rsi),%eax
  401fda:	eb 0e                	jmp    401fea <urlencode+0x35>
  401fdc:	88 55 00             	mov    %dl,0x0(%rbp)
  401fdf:	48 8d 6d 01          	lea    0x1(%rbp),%rbp
  401fe3:	48 83 c3 01          	add    $0x1,%rbx
  401fe7:	44 89 e0             	mov    %r12d,%eax
  401fea:	44 8d 60 ff          	lea    -0x1(%rax),%r12d
  401fee:	85 c0                	test   %eax,%eax
  401ff0:	0f 84 93 00 00 00    	je     402089 <urlencode+0xd4>
  401ff6:	0f b6 13             	movzbl (%rbx),%edx
  401ff9:	80 fa 2a             	cmp    $0x2a,%dl
  401ffc:	0f 94 c1             	sete   %cl
  401fff:	80 fa 2d             	cmp    $0x2d,%dl
  402002:	0f 94 c0             	sete   %al
  402005:	08 c1                	or     %al,%cl
  402007:	75 d3                	jne    401fdc <urlencode+0x27>
  402009:	80 fa 2e             	cmp    $0x2e,%dl
  40200c:	74 ce                	je     401fdc <urlencode+0x27>
  40200e:	80 fa 5f             	cmp    $0x5f,%dl
  402011:	74 c9                	je     401fdc <urlencode+0x27>
  402013:	8d 42 d0             	lea    -0x30(%rdx),%eax
  402016:	3c 09                	cmp    $0x9,%al
  402018:	76 c2                	jbe    401fdc <urlencode+0x27>
  40201a:	8d 42 bf             	lea    -0x41(%rdx),%eax
  40201d:	3c 19                	cmp    $0x19,%al
  40201f:	76 bb                	jbe    401fdc <urlencode+0x27>
  402021:	8d 42 9f             	lea    -0x61(%rdx),%eax
  402024:	3c 19                	cmp    $0x19,%al
  402026:	76 b4                	jbe    401fdc <urlencode+0x27>
  402028:	80 fa 20             	cmp    $0x20,%dl
  40202b:	74 4a                	je     402077 <urlencode+0xc2>
  40202d:	8d 42 e0             	lea    -0x20(%rdx),%eax
  402030:	3c 5f                	cmp    $0x5f,%al
  402032:	0f 96 c1             	setbe  %cl
  402035:	80 fa 09             	cmp    $0x9,%dl
  402038:	0f 94 c0             	sete   %al
  40203b:	08 c1                	or     %al,%cl
  40203d:	74 45                	je     402084 <urlencode+0xcf>
  40203f:	0f b6 d2             	movzbl %dl,%edx
  402042:	be 58 34 40 00       	mov    $0x403458,%esi
  402047:	48 8d 7c 24 08       	lea    0x8(%rsp),%rdi
  40204c:	b8 00 00 00 00       	mov    $0x0,%eax
  402051:	e8 da ed ff ff       	callq  400e30 <sprintf@plt>
  402056:	0f b6 44 24 08       	movzbl 0x8(%rsp),%eax
  40205b:	88 45 00             	mov    %al,0x0(%rbp)
  40205e:	0f b6 44 24 09       	movzbl 0x9(%rsp),%eax
  402063:	88 45 01             	mov    %al,0x1(%rbp)
  402066:	0f b6 44 24 0a       	movzbl 0xa(%rsp),%eax
  40206b:	88 45 02             	mov    %al,0x2(%rbp)
  40206e:	48 8d 6d 03          	lea    0x3(%rbp),%rbp
  402072:	e9 6c ff ff ff       	jmpq   401fe3 <urlencode+0x2e>
  402077:	c6 45 00 2b          	movb   $0x2b,0x0(%rbp)
  40207b:	48 8d 6d 01          	lea    0x1(%rbp),%rbp
  40207f:	e9 5f ff ff ff       	jmpq   401fe3 <urlencode+0x2e>
  402084:	b8 ff ff ff ff       	mov    $0xffffffff,%eax
  402089:	48 83 c4 10          	add    $0x10,%rsp
  40208d:	5b                   	pop    %rbx
  40208e:	5d                   	pop    %rbp
  40208f:	41 5c                	pop    %r12
  402091:	c3                   	retq   

0000000000402092 <rio_writen>:
  402092:	41 55                	push   %r13
  402094:	41 54                	push   %r12
  402096:	55                   	push   %rbp
  402097:	53                   	push   %rbx
  402098:	48 83 ec 08          	sub    $0x8,%rsp
  40209c:	41 89 fc             	mov    %edi,%r12d
  40209f:	48 89 f5             	mov    %rsi,%rbp
  4020a2:	49 89 d5             	mov    %rdx,%r13
  4020a5:	48 89 d3             	mov    %rdx,%rbx
  4020a8:	eb 06                	jmp    4020b0 <rio_writen+0x1e>
  4020aa:	48 29 c3             	sub    %rax,%rbx
  4020ad:	48 01 c5             	add    %rax,%rbp
  4020b0:	48 85 db             	test   %rbx,%rbx
  4020b3:	74 24                	je     4020d9 <rio_writen+0x47>
  4020b5:	48 89 da             	mov    %rbx,%rdx
  4020b8:	48 89 ee             	mov    %rbp,%rsi
  4020bb:	44 89 e7             	mov    %r12d,%edi
  4020be:	e8 1d ec ff ff       	callq  400ce0 <write@plt>
  4020c3:	48 85 c0             	test   %rax,%rax
  4020c6:	7f e2                	jg     4020aa <rio_writen+0x18>
  4020c8:	e8 c3 eb ff ff       	callq  400c90 <__errno_location@plt>
  4020cd:	83 38 04             	cmpl   $0x4,(%rax)
  4020d0:	75 15                	jne    4020e7 <rio_writen+0x55>
  4020d2:	b8 00 00 00 00       	mov    $0x0,%eax
  4020d7:	eb d1                	jmp    4020aa <rio_writen+0x18>
  4020d9:	4c 89 e8             	mov    %r13,%rax
  4020dc:	48 83 c4 08          	add    $0x8,%rsp
  4020e0:	5b                   	pop    %rbx
  4020e1:	5d                   	pop    %rbp
  4020e2:	41 5c                	pop    %r12
  4020e4:	41 5d                	pop    %r13
  4020e6:	c3                   	retq   
  4020e7:	48 c7 c0 ff ff ff ff 	mov    $0xffffffffffffffff,%rax
  4020ee:	eb ec                	jmp    4020dc <rio_writen+0x4a>

00000000004020f0 <rio_read>:
  4020f0:	41 55                	push   %r13
  4020f2:	41 54                	push   %r12
  4020f4:	55                   	push   %rbp
  4020f5:	53                   	push   %rbx
  4020f6:	48 83 ec 08          	sub    $0x8,%rsp
  4020fa:	48 89 fb             	mov    %rdi,%rbx
  4020fd:	49 89 f5             	mov    %rsi,%r13
  402100:	49 89 d4             	mov    %rdx,%r12
  402103:	eb 0a                	jmp    40210f <rio_read+0x1f>
  402105:	e8 86 eb ff ff       	callq  400c90 <__errno_location@plt>
  40210a:	83 38 04             	cmpl   $0x4,(%rax)
  40210d:	75 5a                	jne    402169 <rio_read+0x79>
  40210f:	8b 6b 04             	mov    0x4(%rbx),%ebp
  402112:	85 ed                	test   %ebp,%ebp
  402114:	7f 22                	jg     402138 <rio_read+0x48>
  402116:	48 8d 6b 10          	lea    0x10(%rbx),%rbp
  40211a:	ba 00 20 00 00       	mov    $0x2000,%edx
  40211f:	48 89 ee             	mov    %rbp,%rsi
  402122:	8b 3b                	mov    (%rbx),%edi
  402124:	e8 17 ec ff ff       	callq  400d40 <read@plt>
  402129:	89 43 04             	mov    %eax,0x4(%rbx)
  40212c:	85 c0                	test   %eax,%eax
  40212e:	78 d5                	js     402105 <rio_read+0x15>
  402130:	74 40                	je     402172 <rio_read+0x82>
  402132:	48 89 6b 08          	mov    %rbp,0x8(%rbx)
  402136:	eb d7                	jmp    40210f <rio_read+0x1f>
  402138:	89 e8                	mov    %ebp,%eax
  40213a:	4c 39 e0             	cmp    %r12,%rax
  40213d:	72 03                	jb     402142 <rio_read+0x52>
  40213f:	44 89 e5             	mov    %r12d,%ebp
  402142:	4c 63 e5             	movslq %ebp,%r12
  402145:	48 8b 73 08          	mov    0x8(%rbx),%rsi
  402149:	4c 89 e2             	mov    %r12,%rdx
  40214c:	4c 89 ef             	mov    %r13,%rdi
  40214f:	e8 3c ec ff ff       	callq  400d90 <memcpy@plt>
  402154:	4c 01 63 08          	add    %r12,0x8(%rbx)
  402158:	29 6b 04             	sub    %ebp,0x4(%rbx)
  40215b:	4c 89 e0             	mov    %r12,%rax
  40215e:	48 83 c4 08          	add    $0x8,%rsp
  402162:	5b                   	pop    %rbx
  402163:	5d                   	pop    %rbp
  402164:	41 5c                	pop    %r12
  402166:	41 5d                	pop    %r13
  402168:	c3                   	retq   
  402169:	48 c7 c0 ff ff ff ff 	mov    $0xffffffffffffffff,%rax
  402170:	eb ec                	jmp    40215e <rio_read+0x6e>
  402172:	b8 00 00 00 00       	mov    $0x0,%eax
  402177:	eb e5                	jmp    40215e <rio_read+0x6e>

0000000000402179 <rio_readlineb>:
  402179:	41 55                	push   %r13
  40217b:	41 54                	push   %r12
  40217d:	55                   	push   %rbp
  40217e:	53                   	push   %rbx
  40217f:	48 83 ec 18          	sub    $0x18,%rsp
  402183:	49 89 fd             	mov    %rdi,%r13
  402186:	48 89 f5             	mov    %rsi,%rbp
  402189:	49 89 d4             	mov    %rdx,%r12
  40218c:	bb 01 00 00 00       	mov    $0x1,%ebx
  402191:	4c 39 e3             	cmp    %r12,%rbx
  402194:	73 44                	jae    4021da <rio_readlineb+0x61>
  402196:	ba 01 00 00 00       	mov    $0x1,%edx
  40219b:	48 8d 74 24 0f       	lea    0xf(%rsp),%rsi
  4021a0:	4c 89 ef             	mov    %r13,%rdi
  4021a3:	e8 48 ff ff ff       	callq  4020f0 <rio_read>
  4021a8:	83 f8 01             	cmp    $0x1,%eax
  4021ab:	75 19                	jne    4021c6 <rio_readlineb+0x4d>
  4021ad:	48 8d 55 01          	lea    0x1(%rbp),%rdx
  4021b1:	0f b6 44 24 0f       	movzbl 0xf(%rsp),%eax
  4021b6:	88 45 00             	mov    %al,0x0(%rbp)
  4021b9:	3c 0a                	cmp    $0xa,%al
  4021bb:	74 1a                	je     4021d7 <rio_readlineb+0x5e>
  4021bd:	48 83 c3 01          	add    $0x1,%rbx
  4021c1:	48 89 d5             	mov    %rdx,%rbp
  4021c4:	eb cb                	jmp    402191 <rio_readlineb+0x18>
  4021c6:	85 c0                	test   %eax,%eax
  4021c8:	75 22                	jne    4021ec <rio_readlineb+0x73>
  4021ca:	48 83 fb 01          	cmp    $0x1,%rbx
  4021ce:	75 0a                	jne    4021da <rio_readlineb+0x61>
  4021d0:	b8 00 00 00 00       	mov    $0x0,%eax
  4021d5:	eb 0a                	jmp    4021e1 <rio_readlineb+0x68>
  4021d7:	48 89 d5             	mov    %rdx,%rbp
  4021da:	c6 45 00 00          	movb   $0x0,0x0(%rbp)
  4021de:	48 89 d8             	mov    %rbx,%rax
  4021e1:	48 83 c4 18          	add    $0x18,%rsp
  4021e5:	5b                   	pop    %rbx
  4021e6:	5d                   	pop    %rbp
  4021e7:	41 5c                	pop    %r12
  4021e9:	41 5d                	pop    %r13
  4021eb:	c3                   	retq   
  4021ec:	48 c7 c0 ff ff ff ff 	mov    $0xffffffffffffffff,%rax
  4021f3:	eb ec                	jmp    4021e1 <rio_readlineb+0x68>

00000000004021f5 <submitr>:
  4021f5:	41 57                	push   %r15
  4021f7:	41 56                	push   %r14
  4021f9:	41 55                	push   %r13
  4021fb:	41 54                	push   %r12
  4021fd:	55                   	push   %rbp
  4021fe:	53                   	push   %rbx
  4021ff:	48 81 ec 48 a0 00 00 	sub    $0xa048,%rsp
  402206:	49 89 fc             	mov    %rdi,%r12
  402209:	89 74 24 04          	mov    %esi,0x4(%rsp)
  40220d:	49 89 d7             	mov    %rdx,%r15
  402210:	49 89 ce             	mov    %rcx,%r14
  402213:	4c 89 44 24 08       	mov    %r8,0x8(%rsp)
  402218:	4d 89 cd             	mov    %r9,%r13
  40221b:	48 8b ac 24 80 a0 00 	mov    0xa080(%rsp),%rbp
  402222:	00 
  402223:	c7 84 24 1c 20 00 00 	movl   $0x0,0x201c(%rsp)
  40222a:	00 00 00 00 
  40222e:	ba 00 00 00 00       	mov    $0x0,%edx
  402233:	be 01 00 00 00       	mov    $0x1,%esi
  402238:	bf 02 00 00 00       	mov    $0x2,%edi
  40223d:	e8 2e ec ff ff       	callq  400e70 <socket@plt>
  402242:	85 c0                	test   %eax,%eax
  402244:	0f 88 8f 02 00 00    	js     4024d9 <submitr+0x2e4>
  40224a:	89 c3                	mov    %eax,%ebx
  40224c:	4c 89 e7             	mov    %r12,%rdi
  40224f:	e8 0c eb ff ff       	callq  400d60 <gethostbyname@plt>
  402254:	48 85 c0             	test   %rax,%rax
  402257:	0f 84 c8 02 00 00    	je     402525 <submitr+0x330>
  40225d:	48 c7 84 24 32 a0 00 	movq   $0x0,0xa032(%rsp)
  402264:	00 00 00 00 00 
  402269:	c7 84 24 3a a0 00 00 	movl   $0x0,0xa03a(%rsp)
  402270:	00 00 00 00 
  402274:	66 c7 84 24 3e a0 00 	movw   $0x0,0xa03e(%rsp)
  40227b:	00 00 00 
  40227e:	66 c7 84 24 30 a0 00 	movw   $0x2,0xa030(%rsp)
  402285:	00 02 00 
  402288:	48 8b 48 18          	mov    0x18(%rax),%rcx
  40228c:	48 63 50 14          	movslq 0x14(%rax),%rdx
  402290:	48 8d bc 24 34 a0 00 	lea    0xa034(%rsp),%rdi
  402297:	00 
  402298:	48 8b 31             	mov    (%rcx),%rsi
  40229b:	e8 40 eb ff ff       	callq  400de0 <memmove@plt>
  4022a0:	0f b7 44 24 04       	movzwl 0x4(%rsp),%eax
  4022a5:	66 c1 c0 08          	rol    $0x8,%ax
  4022a9:	66 89 84 24 32 a0 00 	mov    %ax,0xa032(%rsp)
  4022b0:	00 
  4022b1:	ba 10 00 00 00       	mov    $0x10,%edx
  4022b6:	48 8d b4 24 30 a0 00 	lea    0xa030(%rsp),%rsi
  4022bd:	00 
  4022be:	89 df                	mov    %ebx,%edi
  4022c0:	e8 8b eb ff ff       	callq  400e50 <connect@plt>
  4022c5:	85 c0                	test   %eax,%eax
  4022c7:	0f 88 c0 02 00 00    	js     40258d <submitr+0x398>
  4022cd:	48 c7 c6 ff ff ff ff 	mov    $0xffffffffffffffff,%rsi
  4022d4:	b8 00 00 00 00       	mov    $0x0,%eax
  4022d9:	48 89 f1             	mov    %rsi,%rcx
  4022dc:	4c 89 ef             	mov    %r13,%rdi
  4022df:	f2 ae                	repnz scas %es:(%rdi),%al
  4022e1:	48 89 ca             	mov    %rcx,%rdx
  4022e4:	48 f7 d2             	not    %rdx
  4022e7:	48 89 f1             	mov    %rsi,%rcx
  4022ea:	4c 89 ff             	mov    %r15,%rdi
  4022ed:	f2 ae                	repnz scas %es:(%rdi),%al
  4022ef:	48 f7 d1             	not    %rcx
  4022f2:	49 89 c8             	mov    %rcx,%r8
  4022f5:	48 89 f1             	mov    %rsi,%rcx
  4022f8:	4c 89 f7             	mov    %r14,%rdi
  4022fb:	f2 ae                	repnz scas %es:(%rdi),%al
  4022fd:	48 f7 d1             	not    %rcx
  402300:	4d 8d 44 08 fe       	lea    -0x2(%r8,%rcx,1),%r8
  402305:	48 89 f1             	mov    %rsi,%rcx
  402308:	48 8b 7c 24 08       	mov    0x8(%rsp),%rdi
  40230d:	f2 ae                	repnz scas %es:(%rdi),%al
  40230f:	48 89 c8             	mov    %rcx,%rax
  402312:	48 f7 d0             	not    %rax
  402315:	49 8d 4c 00 ff       	lea    -0x1(%r8,%rax,1),%rcx
  40231a:	48 8d 44 52 fd       	lea    -0x3(%rdx,%rdx,2),%rax
  40231f:	48 8d 84 01 80 00 00 	lea    0x80(%rcx,%rax,1),%rax
  402326:	00 
  402327:	48 3d 00 20 00 00    	cmp    $0x2000,%rax
  40232d:	0f 87 b4 02 00 00    	ja     4025e7 <submitr+0x3f2>
  402333:	48 8d b4 24 20 40 00 	lea    0x4020(%rsp),%rsi
  40233a:	00 
  40233b:	b9 00 04 00 00       	mov    $0x400,%ecx
  402340:	b8 00 00 00 00       	mov    $0x0,%eax
  402345:	48 89 f7             	mov    %rsi,%rdi
  402348:	f3 48 ab             	rep stos %rax,%es:(%rdi)
  40234b:	4c 89 ef             	mov    %r13,%rdi
  40234e:	e8 62 fc ff ff       	callq  401fb5 <urlencode>
  402353:	85 c0                	test   %eax,%eax
  402355:	0f 88 ff 02 00 00    	js     40265a <submitr+0x465>
  40235b:	4c 8d ac 24 20 60 00 	lea    0x6020(%rsp),%r13
  402362:	00 
  402363:	4d 89 e1             	mov    %r12,%r9
  402366:	4c 8d 84 24 20 40 00 	lea    0x4020(%rsp),%r8
  40236d:	00 
  40236e:	4c 89 f9             	mov    %r15,%rcx
  402371:	4c 89 f2             	mov    %r14,%rdx
  402374:	be e8 33 40 00       	mov    $0x4033e8,%esi
  402379:	4c 89 ef             	mov    %r13,%rdi
  40237c:	b8 00 00 00 00       	mov    $0x0,%eax
  402381:	e8 aa ea ff ff       	callq  400e30 <sprintf@plt>
  402386:	48 c7 c1 ff ff ff ff 	mov    $0xffffffffffffffff,%rcx
  40238d:	b8 00 00 00 00       	mov    $0x0,%eax
  402392:	4c 89 ef             	mov    %r13,%rdi
  402395:	f2 ae                	repnz scas %es:(%rdi),%al
  402397:	48 89 ca             	mov    %rcx,%rdx
  40239a:	48 f7 d2             	not    %rdx
  40239d:	48 8d 52 ff          	lea    -0x1(%rdx),%rdx
  4023a1:	4c 89 ee             	mov    %r13,%rsi
  4023a4:	89 df                	mov    %ebx,%edi
  4023a6:	e8 e7 fc ff ff       	callq  402092 <rio_writen>
  4023ab:	48 85 c0             	test   %rax,%rax
  4023ae:	0f 88 31 03 00 00    	js     4026e5 <submitr+0x4f0>
  4023b4:	89 de                	mov    %ebx,%esi
  4023b6:	48 8d bc 24 20 80 00 	lea    0x8020(%rsp),%rdi
  4023bd:	00 
  4023be:	e8 b7 fb ff ff       	callq  401f7a <rio_readinitb>
  4023c3:	ba 00 20 00 00       	mov    $0x2000,%edx
  4023c8:	48 8d b4 24 20 60 00 	lea    0x6020(%rsp),%rsi
  4023cf:	00 
  4023d0:	48 8d bc 24 20 80 00 	lea    0x8020(%rsp),%rdi
  4023d7:	00 
  4023d8:	e8 9c fd ff ff       	callq  402179 <rio_readlineb>
  4023dd:	48 85 c0             	test   %rax,%rax
  4023e0:	0f 8e 6e 03 00 00    	jle    402754 <submitr+0x55f>
  4023e6:	4c 8d 44 24 10       	lea    0x10(%rsp),%r8
  4023eb:	48 8d 8c 24 1c 20 00 	lea    0x201c(%rsp),%rcx
  4023f2:	00 
  4023f3:	48 8d 94 24 20 20 00 	lea    0x2020(%rsp),%rdx
  4023fa:	00 
  4023fb:	be 5f 34 40 00       	mov    $0x40345f,%esi
  402400:	48 8d bc 24 20 60 00 	lea    0x6020(%rsp),%rdi
  402407:	00 
  402408:	b8 00 00 00 00       	mov    $0x0,%eax
  40240d:	e8 ae e9 ff ff       	callq  400dc0 <__isoc99_sscanf@plt>
  402412:	48 8d b4 24 20 60 00 	lea    0x6020(%rsp),%rsi
  402419:	00 
  40241a:	bf 76 34 40 00       	mov    $0x403476,%edi
  40241f:	b9 03 00 00 00       	mov    $0x3,%ecx
  402424:	f3 a6                	repz cmpsb %es:(%rdi),%ds:(%rsi)
  402426:	0f 97 c0             	seta   %al
  402429:	1c 00                	sbb    $0x0,%al
  40242b:	84 c0                	test   %al,%al
  40242d:	0f 84 9f 03 00 00    	je     4027d2 <submitr+0x5dd>
  402433:	ba 00 20 00 00       	mov    $0x2000,%edx
  402438:	48 8d b4 24 20 60 00 	lea    0x6020(%rsp),%rsi
  40243f:	00 
  402440:	48 8d bc 24 20 80 00 	lea    0x8020(%rsp),%rdi
  402447:	00 
  402448:	e8 2c fd ff ff       	callq  402179 <rio_readlineb>
  40244d:	48 85 c0             	test   %rax,%rax
  402450:	7f c0                	jg     402412 <submitr+0x21d>
  402452:	48 b8 45 72 72 6f 72 	movabs $0x43203a726f727245,%rax
  402459:	3a 20 43 
  40245c:	48 ba 6c 69 65 6e 74 	movabs $0x6e7520746e65696c,%rdx
  402463:	20 75 6e 
  402466:	48 89 45 00          	mov    %rax,0x0(%rbp)
  40246a:	48 89 55 08          	mov    %rdx,0x8(%rbp)
  40246e:	48 b8 61 62 6c 65 20 	movabs $0x206f7420656c6261,%rax
  402475:	74 6f 20 
  402478:	48 ba 72 65 61 64 20 	movabs $0x6165682064616572,%rdx
  40247f:	68 65 61 
  402482:	48 89 45 10          	mov    %rax,0x10(%rbp)
  402486:	48 89 55 18          	mov    %rdx,0x18(%rbp)
  40248a:	48 b8 64 65 72 73 20 	movabs $0x6f72662073726564,%rax
  402491:	66 72 6f 
  402494:	48 ba 6d 20 74 68 65 	movabs $0x657220656874206d,%rdx
  40249b:	20 72 65 
  40249e:	48 89 45 20          	mov    %rax,0x20(%rbp)
  4024a2:	48 89 55 28          	mov    %rdx,0x28(%rbp)
  4024a6:	48 b8 73 75 6c 74 20 	movabs $0x72657320746c7573,%rax
  4024ad:	73 65 72 
  4024b0:	48 89 45 30          	mov    %rax,0x30(%rbp)
  4024b4:	c7 45 38 76 65 72 00 	movl   $0x726576,0x38(%rbp)
  4024bb:	89 df                	mov    %ebx,%edi
  4024bd:	e8 6e e8 ff ff       	callq  400d30 <close@plt>
  4024c2:	b8 ff ff ff ff       	mov    $0xffffffff,%eax
  4024c7:	48 81 c4 48 a0 00 00 	add    $0xa048,%rsp
  4024ce:	5b                   	pop    %rbx
  4024cf:	5d                   	pop    %rbp
  4024d0:	41 5c                	pop    %r12
  4024d2:	41 5d                	pop    %r13
  4024d4:	41 5e                	pop    %r14
  4024d6:	41 5f                	pop    %r15
  4024d8:	c3                   	retq   
  4024d9:	48 b8 45 72 72 6f 72 	movabs $0x43203a726f727245,%rax
  4024e0:	3a 20 43 
  4024e3:	48 ba 6c 69 65 6e 74 	movabs $0x6e7520746e65696c,%rdx
  4024ea:	20 75 6e 
  4024ed:	48 89 45 00          	mov    %rax,0x0(%rbp)
  4024f1:	48 89 55 08          	mov    %rdx,0x8(%rbp)
  4024f5:	48 b8 61 62 6c 65 20 	movabs $0x206f7420656c6261,%rax
  4024fc:	74 6f 20 
  4024ff:	48 ba 63 72 65 61 74 	movabs $0x7320657461657263,%rdx
  402506:	65 20 73 
  402509:	48 89 45 10          	mov    %rax,0x10(%rbp)
  40250d:	48 89 55 18          	mov    %rdx,0x18(%rbp)
  402511:	c7 45 20 6f 63 6b 65 	movl   $0x656b636f,0x20(%rbp)
  402518:	66 c7 45 24 74 00    	movw   $0x74,0x24(%rbp)
  40251e:	b8 ff ff ff ff       	mov    $0xffffffff,%eax
  402523:	eb a2                	jmp    4024c7 <submitr+0x2d2>
  402525:	48 b8 45 72 72 6f 72 	movabs $0x44203a726f727245,%rax
  40252c:	3a 20 44 
  40252f:	48 ba 4e 53 20 69 73 	movabs $0x6e7520736920534e,%rdx
  402536:	20 75 6e 
  402539:	48 89 45 00          	mov    %rax,0x0(%rbp)
  40253d:	48 89 55 08          	mov    %rdx,0x8(%rbp)
  402541:	48 b8 61 62 6c 65 20 	movabs $0x206f7420656c6261,%rax
  402548:	74 6f 20 
  40254b:	48 ba 72 65 73 6f 6c 	movabs $0x2065766c6f736572,%rdx
  402552:	76 65 20 
  402555:	48 89 45 10          	mov    %rax,0x10(%rbp)
  402559:	48 89 55 18          	mov    %rdx,0x18(%rbp)
  40255d:	48 b8 73 65 72 76 65 	movabs $0x6120726576726573,%rax
  402564:	72 20 61 
  402567:	48 89 45 20          	mov    %rax,0x20(%rbp)
  40256b:	c7 45 28 64 64 72 65 	movl   $0x65726464,0x28(%rbp)
  402572:	66 c7 45 2c 73 73    	movw   $0x7373,0x2c(%rbp)
  402578:	c6 45 2e 00          	movb   $0x0,0x2e(%rbp)
  40257c:	89 df                	mov    %ebx,%edi
  40257e:	e8 ad e7 ff ff       	callq  400d30 <close@plt>
  402583:	b8 ff ff ff ff       	mov    $0xffffffff,%eax
  402588:	e9 3a ff ff ff       	jmpq   4024c7 <submitr+0x2d2>
  40258d:	48 b8 45 72 72 6f 72 	movabs $0x55203a726f727245,%rax
  402594:	3a 20 55 
  402597:	48 ba 6e 61 62 6c 65 	movabs $0x6f7420656c62616e,%rdx
  40259e:	20 74 6f 
  4025a1:	48 89 45 00          	mov    %rax,0x0(%rbp)
  4025a5:	48 89 55 08          	mov    %rdx,0x8(%rbp)
  4025a9:	48 b8 20 63 6f 6e 6e 	movabs $0x7463656e6e6f6320,%rax
  4025b0:	65 63 74 
  4025b3:	48 ba 20 74 6f 20 74 	movabs $0x20656874206f7420,%rdx
  4025ba:	68 65 20 
  4025bd:	48 89 45 10          	mov    %rax,0x10(%rbp)
  4025c1:	48 89 55 18          	mov    %rdx,0x18(%rbp)
  4025c5:	c7 45 20 73 65 72 76 	movl   $0x76726573,0x20(%rbp)
  4025cc:	66 c7 45 24 65 72    	movw   $0x7265,0x24(%rbp)
  4025d2:	c6 45 26 00          	movb   $0x0,0x26(%rbp)
  4025d6:	89 df                	mov    %ebx,%edi
  4025d8:	e8 53 e7 ff ff       	callq  400d30 <close@plt>
  4025dd:	b8 ff ff ff ff       	mov    $0xffffffff,%eax
  4025e2:	e9 e0 fe ff ff       	jmpq   4024c7 <submitr+0x2d2>
  4025e7:	48 b8 45 72 72 6f 72 	movabs $0x52203a726f727245,%rax
  4025ee:	3a 20 52 
  4025f1:	48 ba 65 73 75 6c 74 	movabs $0x747320746c757365,%rdx
  4025f8:	20 73 74 
  4025fb:	48 89 45 00          	mov    %rax,0x0(%rbp)
  4025ff:	48 89 55 08          	mov    %rdx,0x8(%rbp)
  402603:	48 b8 72 69 6e 67 20 	movabs $0x6f6f7420676e6972,%rax
  40260a:	74 6f 6f 
  40260d:	48 ba 20 6c 61 72 67 	movabs $0x202e656772616c20,%rdx
  402614:	65 2e 20 
  402617:	48 89 45 10          	mov    %rax,0x10(%rbp)
  40261b:	48 89 55 18          	mov    %rdx,0x18(%rbp)
  40261f:	48 b8 49 6e 63 72 65 	movabs $0x6573616572636e49,%rax
  402626:	61 73 65 
  402629:	48 ba 20 53 55 42 4d 	movabs $0x5254494d42555320,%rdx
  402630:	49 54 52 
  402633:	48 89 45 20          	mov    %rax,0x20(%rbp)
  402637:	48 89 55 28          	mov    %rdx,0x28(%rbp)
  40263b:	48 b8 5f 4d 41 58 42 	movabs $0x46554258414d5f,%rax
  402642:	55 46 00 
  402645:	48 89 45 30          	mov    %rax,0x30(%rbp)
  402649:	89 df                	mov    %ebx,%edi
  40264b:	e8 e0 e6 ff ff       	callq  400d30 <close@plt>
  402650:	b8 ff ff ff ff       	mov    $0xffffffff,%eax
  402655:	e9 6d fe ff ff       	jmpq   4024c7 <submitr+0x2d2>
  40265a:	48 b8 45 72 72 6f 72 	movabs $0x52203a726f727245,%rax
  402661:	3a 20 52 
  402664:	48 ba 65 73 75 6c 74 	movabs $0x747320746c757365,%rdx
  40266b:	20 73 74 
  40266e:	48 89 45 00          	mov    %rax,0x0(%rbp)
  402672:	48 89 55 08          	mov    %rdx,0x8(%rbp)
  402676:	48 b8 72 69 6e 67 20 	movabs $0x6e6f6320676e6972,%rax
  40267d:	63 6f 6e 
  402680:	48 ba 74 61 69 6e 73 	movabs $0x6e6120736e696174,%rdx
  402687:	20 61 6e 
  40268a:	48 89 45 10          	mov    %rax,0x10(%rbp)
  40268e:	48 89 55 18          	mov    %rdx,0x18(%rbp)
  402692:	48 b8 20 69 6c 6c 65 	movabs $0x6c6167656c6c6920,%rax
  402699:	67 61 6c 
  40269c:	48 ba 20 6f 72 20 75 	movabs $0x72706e7520726f20,%rdx
  4026a3:	6e 70 72 
  4026a6:	48 89 45 20          	mov    %rax,0x20(%rbp)
  4026aa:	48 89 55 28          	mov    %rdx,0x28(%rbp)
  4026ae:	48 b8 69 6e 74 61 62 	movabs $0x20656c6261746e69,%rax
  4026b5:	6c 65 20 
  4026b8:	48 ba 63 68 61 72 61 	movabs $0x6574636172616863,%rdx
  4026bf:	63 74 65 
  4026c2:	48 89 45 30          	mov    %rax,0x30(%rbp)
  4026c6:	48 89 55 38          	mov    %rdx,0x38(%rbp)
  4026ca:	66 c7 45 40 72 2e    	movw   $0x2e72,0x40(%rbp)
  4026d0:	c6 45 42 00          	movb   $0x0,0x42(%rbp)
  4026d4:	89 df                	mov    %ebx,%edi
  4026d6:	e8 55 e6 ff ff       	callq  400d30 <close@plt>
  4026db:	b8 ff ff ff ff       	mov    $0xffffffff,%eax
  4026e0:	e9 e2 fd ff ff       	jmpq   4024c7 <submitr+0x2d2>
  4026e5:	48 b8 45 72 72 6f 72 	movabs $0x43203a726f727245,%rax
  4026ec:	3a 20 43 
  4026ef:	48 ba 6c 69 65 6e 74 	movabs $0x6e7520746e65696c,%rdx
  4026f6:	20 75 6e 
  4026f9:	48 89 45 00          	mov    %rax,0x0(%rbp)
  4026fd:	48 89 55 08          	mov    %rdx,0x8(%rbp)
  402701:	48 b8 61 62 6c 65 20 	movabs $0x206f7420656c6261,%rax
  402708:	74 6f 20 
  40270b:	48 ba 77 72 69 74 65 	movabs $0x6f74206574697277,%rdx
  402712:	20 74 6f 
  402715:	48 89 45 10          	mov    %rax,0x10(%rbp)
  402719:	48 89 55 18          	mov    %rdx,0x18(%rbp)
  40271d:	48 b8 20 74 68 65 20 	movabs $0x7365722065687420,%rax
  402724:	72 65 73 
  402727:	48 ba 75 6c 74 20 73 	movabs $0x7672657320746c75,%rdx
  40272e:	65 72 76 
  402731:	48 89 45 20          	mov    %rax,0x20(%rbp)
  402735:	48 89 55 28          	mov    %rdx,0x28(%rbp)
  402739:	66 c7 45 30 65 72    	movw   $0x7265,0x30(%rbp)
  40273f:	c6 45 32 00          	movb   $0x0,0x32(%rbp)
  402743:	89 df                	mov    %ebx,%edi
  402745:	e8 e6 e5 ff ff       	callq  400d30 <close@plt>
  40274a:	b8 ff ff ff ff       	mov    $0xffffffff,%eax
  40274f:	e9 73 fd ff ff       	jmpq   4024c7 <submitr+0x2d2>
  402754:	48 b8 45 72 72 6f 72 	movabs $0x43203a726f727245,%rax
  40275b:	3a 20 43 
  40275e:	48 ba 6c 69 65 6e 74 	movabs $0x6e7520746e65696c,%rdx
  402765:	20 75 6e 
  402768:	48 89 45 00          	mov    %rax,0x0(%rbp)
  40276c:	48 89 55 08          	mov    %rdx,0x8(%rbp)
  402770:	48 b8 61 62 6c 65 20 	movabs $0x206f7420656c6261,%rax
  402777:	74 6f 20 
  40277a:	48 ba 72 65 61 64 20 	movabs $0x7269662064616572,%rdx
  402781:	66 69 72 
  402784:	48 89 45 10          	mov    %rax,0x10(%rbp)
  402788:	48 89 55 18          	mov    %rdx,0x18(%rbp)
  40278c:	48 b8 73 74 20 68 65 	movabs $0x6564616568207473,%rax
  402793:	61 64 65 
  402796:	48 ba 72 20 66 72 6f 	movabs $0x72206d6f72662072,%rdx
  40279d:	6d 20 72 
  4027a0:	48 89 45 20          	mov    %rax,0x20(%rbp)
  4027a4:	48 89 55 28          	mov    %rdx,0x28(%rbp)
  4027a8:	48 b8 65 73 75 6c 74 	movabs $0x657320746c757365,%rax
  4027af:	20 73 65 
  4027b2:	48 89 45 30          	mov    %rax,0x30(%rbp)
  4027b6:	c7 45 38 72 76 65 72 	movl   $0x72657672,0x38(%rbp)
  4027bd:	c6 45 3c 00          	movb   $0x0,0x3c(%rbp)
  4027c1:	89 df                	mov    %ebx,%edi
  4027c3:	e8 68 e5 ff ff       	callq  400d30 <close@plt>
  4027c8:	b8 ff ff ff ff       	mov    $0xffffffff,%eax
  4027cd:	e9 f5 fc ff ff       	jmpq   4024c7 <submitr+0x2d2>
  4027d2:	ba 00 20 00 00       	mov    $0x2000,%edx
  4027d7:	48 8d b4 24 20 60 00 	lea    0x6020(%rsp),%rsi
  4027de:	00 
  4027df:	48 8d bc 24 20 80 00 	lea    0x8020(%rsp),%rdi
  4027e6:	00 
  4027e7:	e8 8d f9 ff ff       	callq  402179 <rio_readlineb>
  4027ec:	48 85 c0             	test   %rax,%rax
  4027ef:	0f 8e 91 00 00 00    	jle    402886 <submitr+0x691>
  4027f5:	8b 94 24 1c 20 00 00 	mov    0x201c(%rsp),%edx
  4027fc:	81 fa c8 00 00 00    	cmp    $0xc8,%edx
  402802:	0f 85 02 01 00 00    	jne    40290a <submitr+0x715>
  402808:	48 8d b4 24 20 60 00 	lea    0x6020(%rsp),%rsi
  40280f:	00 
  402810:	48 89 ef             	mov    %rbp,%rdi
  402813:	e8 a8 e4 ff ff       	callq  400cc0 <strcpy@plt>
  402818:	89 df                	mov    %ebx,%edi
  40281a:	e8 11 e5 ff ff       	callq  400d30 <close@plt>
  40281f:	bf 70 34 40 00       	mov    $0x403470,%edi
  402824:	b9 04 00 00 00       	mov    $0x4,%ecx
  402829:	48 89 ee             	mov    %rbp,%rsi
  40282c:	f3 a6                	repz cmpsb %es:(%rdi),%ds:(%rsi)
  40282e:	0f 97 c0             	seta   %al
  402831:	1c 00                	sbb    $0x0,%al
  402833:	0f be c0             	movsbl %al,%eax
  402836:	85 c0                	test   %eax,%eax
  402838:	0f 84 89 fc ff ff    	je     4024c7 <submitr+0x2d2>
  40283e:	bf 74 34 40 00       	mov    $0x403474,%edi
  402843:	b9 05 00 00 00       	mov    $0x5,%ecx
  402848:	48 89 ee             	mov    %rbp,%rsi
  40284b:	f3 a6                	repz cmpsb %es:(%rdi),%ds:(%rsi)
  40284d:	0f 97 c0             	seta   %al
  402850:	1c 00                	sbb    $0x0,%al
  402852:	0f be c0             	movsbl %al,%eax
  402855:	85 c0                	test   %eax,%eax
  402857:	0f 84 6a fc ff ff    	je     4024c7 <submitr+0x2d2>
  40285d:	bf 79 34 40 00       	mov    $0x403479,%edi
  402862:	b9 03 00 00 00       	mov    $0x3,%ecx
  402867:	48 89 ee             	mov    %rbp,%rsi
  40286a:	f3 a6                	repz cmpsb %es:(%rdi),%ds:(%rsi)
  40286c:	0f 97 c0             	seta   %al
  40286f:	1c 00                	sbb    $0x0,%al
  402871:	0f be c0             	movsbl %al,%eax
  402874:	85 c0                	test   %eax,%eax
  402876:	0f 84 4b fc ff ff    	je     4024c7 <submitr+0x2d2>
  40287c:	b8 ff ff ff ff       	mov    $0xffffffff,%eax
  402881:	e9 41 fc ff ff       	jmpq   4024c7 <submitr+0x2d2>
  402886:	48 b8 45 72 72 6f 72 	movabs $0x43203a726f727245,%rax
  40288d:	3a 20 43 
  402890:	48 ba 6c 69 65 6e 74 	movabs $0x6e7520746e65696c,%rdx
  402897:	20 75 6e 
  40289a:	48 89 45 00          	mov    %rax,0x0(%rbp)
  40289e:	48 89 55 08          	mov    %rdx,0x8(%rbp)
  4028a2:	48 b8 61 62 6c 65 20 	movabs $0x206f7420656c6261,%rax
  4028a9:	74 6f 20 
  4028ac:	48 ba 72 65 61 64 20 	movabs $0x6174732064616572,%rdx
  4028b3:	73 74 61 
  4028b6:	48 89 45 10          	mov    %rax,0x10(%rbp)
  4028ba:	48 89 55 18          	mov    %rdx,0x18(%rbp)
  4028be:	48 b8 74 75 73 20 6d 	movabs $0x7373656d20737574,%rax
  4028c5:	65 73 73 
  4028c8:	48 ba 61 67 65 20 66 	movabs $0x6d6f726620656761,%rdx
  4028cf:	72 6f 6d 
  4028d2:	48 89 45 20          	mov    %rax,0x20(%rbp)
  4028d6:	48 89 55 28          	mov    %rdx,0x28(%rbp)
  4028da:	48 b8 20 72 65 73 75 	movabs $0x20746c7573657220,%rax
  4028e1:	6c 74 20 
  4028e4:	48 89 45 30          	mov    %rax,0x30(%rbp)
  4028e8:	c7 45 38 73 65 72 76 	movl   $0x76726573,0x38(%rbp)
  4028ef:	66 c7 45 3c 65 72    	movw   $0x7265,0x3c(%rbp)
  4028f5:	c6 45 3e 00          	movb   $0x0,0x3e(%rbp)
  4028f9:	89 df                	mov    %ebx,%edi
  4028fb:	e8 30 e4 ff ff       	callq  400d30 <close@plt>
  402900:	b8 ff ff ff ff       	mov    $0xffffffff,%eax
  402905:	e9 bd fb ff ff       	jmpq   4024c7 <submitr+0x2d2>
  40290a:	48 8d 4c 24 10       	lea    0x10(%rsp),%rcx
  40290f:	be 28 34 40 00       	mov    $0x403428,%esi
  402914:	48 89 ef             	mov    %rbp,%rdi
  402917:	b8 00 00 00 00       	mov    $0x0,%eax
  40291c:	e8 0f e5 ff ff       	callq  400e30 <sprintf@plt>
  402921:	89 df                	mov    %ebx,%edi
  402923:	e8 08 e4 ff ff       	callq  400d30 <close@plt>
  402928:	b8 ff ff ff ff       	mov    $0xffffffff,%eax
  40292d:	e9 95 fb ff ff       	jmpq   4024c7 <submitr+0x2d2>

0000000000402932 <init_timeout>:
  402932:	85 ff                	test   %edi,%edi
  402934:	74 24                	je     40295a <init_timeout+0x28>
  402936:	53                   	push   %rbx
  402937:	89 fb                	mov    %edi,%ebx
  402939:	78 18                	js     402953 <init_timeout+0x21>
  40293b:	be 8c 1f 40 00       	mov    $0x401f8c,%esi
  402940:	bf 0e 00 00 00       	mov    $0xe,%edi
  402945:	e8 06 e4 ff ff       	callq  400d50 <signal@plt>
  40294a:	89 df                	mov    %ebx,%edi
  40294c:	e8 cf e3 ff ff       	callq  400d20 <alarm@plt>
  402951:	5b                   	pop    %rbx
  402952:	c3                   	retq   
  402953:	bb 00 00 00 00       	mov    $0x0,%ebx
  402958:	eb e1                	jmp    40293b <init_timeout+0x9>
  40295a:	c3                   	retq   

000000000040295b <init_driver>:
  40295b:	55                   	push   %rbp
  40295c:	53                   	push   %rbx
  40295d:	48 83 ec 18          	sub    $0x18,%rsp
  402961:	48 89 fd             	mov    %rdi,%rbp
  402964:	be 01 00 00 00       	mov    $0x1,%esi
  402969:	bf 0d 00 00 00       	mov    $0xd,%edi
  40296e:	e8 dd e3 ff ff       	callq  400d50 <signal@plt>
  402973:	be 01 00 00 00       	mov    $0x1,%esi
  402978:	bf 1d 00 00 00       	mov    $0x1d,%edi
  40297d:	e8 ce e3 ff ff       	callq  400d50 <signal@plt>
  402982:	be 01 00 00 00       	mov    $0x1,%esi
  402987:	bf 1d 00 00 00       	mov    $0x1d,%edi
  40298c:	e8 bf e3 ff ff       	callq  400d50 <signal@plt>
  402991:	ba 00 00 00 00       	mov    $0x0,%edx
  402996:	be 01 00 00 00       	mov    $0x1,%esi
  40299b:	bf 02 00 00 00       	mov    $0x2,%edi
  4029a0:	e8 cb e4 ff ff       	callq  400e70 <socket@plt>
  4029a5:	85 c0                	test   %eax,%eax
  4029a7:	0f 88 83 00 00 00    	js     402a30 <init_driver+0xd5>
  4029ad:	89 c3                	mov    %eax,%ebx
  4029af:	bf a8 2f 40 00       	mov    $0x402fa8,%edi
  4029b4:	e8 a7 e3 ff ff       	callq  400d60 <gethostbyname@plt>
  4029b9:	48 85 c0             	test   %rax,%rax
  4029bc:	0f 84 ba 00 00 00    	je     402a7c <init_driver+0x121>
  4029c2:	48 c7 44 24 02 00 00 	movq   $0x0,0x2(%rsp)
  4029c9:	00 00 
  4029cb:	c7 44 24 0a 00 00 00 	movl   $0x0,0xa(%rsp)
  4029d2:	00 
  4029d3:	66 c7 44 24 0e 00 00 	movw   $0x0,0xe(%rsp)
  4029da:	66 c7 04 24 02 00    	movw   $0x2,(%rsp)
  4029e0:	48 8b 48 18          	mov    0x18(%rax),%rcx
  4029e4:	48 63 50 14          	movslq 0x14(%rax),%rdx
  4029e8:	48 8d 7c 24 04       	lea    0x4(%rsp),%rdi
  4029ed:	48 8b 31             	mov    (%rcx),%rsi
  4029f0:	e8 eb e3 ff ff       	callq  400de0 <memmove@plt>
  4029f5:	66 c7 44 24 02 3c 9a 	movw   $0x9a3c,0x2(%rsp)
  4029fc:	ba 10 00 00 00       	mov    $0x10,%edx
  402a01:	48 89 e6             	mov    %rsp,%rsi
  402a04:	89 df                	mov    %ebx,%edi
  402a06:	e8 45 e4 ff ff       	callq  400e50 <connect@plt>
  402a0b:	85 c0                	test   %eax,%eax
  402a0d:	0f 88 d1 00 00 00    	js     402ae4 <init_driver+0x189>
  402a13:	89 df                	mov    %ebx,%edi
  402a15:	e8 16 e3 ff ff       	callq  400d30 <close@plt>
  402a1a:	66 c7 45 00 4f 4b    	movw   $0x4b4f,0x0(%rbp)
  402a20:	c6 45 02 00          	movb   $0x0,0x2(%rbp)
  402a24:	b8 00 00 00 00       	mov    $0x0,%eax
  402a29:	48 83 c4 18          	add    $0x18,%rsp
  402a2d:	5b                   	pop    %rbx
  402a2e:	5d                   	pop    %rbp
  402a2f:	c3                   	retq   
  402a30:	48 b8 45 72 72 6f 72 	movabs $0x43203a726f727245,%rax
  402a37:	3a 20 43 
  402a3a:	48 ba 6c 69 65 6e 74 	movabs $0x6e7520746e65696c,%rdx
  402a41:	20 75 6e 
  402a44:	48 89 45 00          	mov    %rax,0x0(%rbp)
  402a48:	48 89 55 08          	mov    %rdx,0x8(%rbp)
  402a4c:	48 b8 61 62 6c 65 20 	movabs $0x206f7420656c6261,%rax
  402a53:	74 6f 20 
  402a56:	48 ba 63 72 65 61 74 	movabs $0x7320657461657263,%rdx
  402a5d:	65 20 73 
  402a60:	48 89 45 10          	mov    %rax,0x10(%rbp)
  402a64:	48 89 55 18          	mov    %rdx,0x18(%rbp)
  402a68:	c7 45 20 6f 63 6b 65 	movl   $0x656b636f,0x20(%rbp)
  402a6f:	66 c7 45 24 74 00    	movw   $0x74,0x24(%rbp)
  402a75:	b8 ff ff ff ff       	mov    $0xffffffff,%eax
  402a7a:	eb ad                	jmp    402a29 <init_driver+0xce>
  402a7c:	48 b8 45 72 72 6f 72 	movabs $0x44203a726f727245,%rax
  402a83:	3a 20 44 
  402a86:	48 ba 4e 53 20 69 73 	movabs $0x6e7520736920534e,%rdx
  402a8d:	20 75 6e 
  402a90:	48 89 45 00          	mov    %rax,0x0(%rbp)
  402a94:	48 89 55 08          	mov    %rdx,0x8(%rbp)
  402a98:	48 b8 61 62 6c 65 20 	movabs $0x206f7420656c6261,%rax
  402a9f:	74 6f 20 
  402aa2:	48 ba 72 65 73 6f 6c 	movabs $0x2065766c6f736572,%rdx
  402aa9:	76 65 20 
  402aac:	48 89 45 10          	mov    %rax,0x10(%rbp)
  402ab0:	48 89 55 18          	mov    %rdx,0x18(%rbp)
  402ab4:	48 b8 73 65 72 76 65 	movabs $0x6120726576726573,%rax
  402abb:	72 20 61 
  402abe:	48 89 45 20          	mov    %rax,0x20(%rbp)
  402ac2:	c7 45 28 64 64 72 65 	movl   $0x65726464,0x28(%rbp)
  402ac9:	66 c7 45 2c 73 73    	movw   $0x7373,0x2c(%rbp)
  402acf:	c6 45 2e 00          	movb   $0x0,0x2e(%rbp)
  402ad3:	89 df                	mov    %ebx,%edi
  402ad5:	e8 56 e2 ff ff       	callq  400d30 <close@plt>
  402ada:	b8 ff ff ff ff       	mov    $0xffffffff,%eax
  402adf:	e9 45 ff ff ff       	jmpq   402a29 <init_driver+0xce>
  402ae4:	48 b8 45 72 72 6f 72 	movabs $0x55203a726f727245,%rax
  402aeb:	3a 20 55 
  402aee:	48 ba 6e 61 62 6c 65 	movabs $0x6f7420656c62616e,%rdx
  402af5:	20 74 6f 
  402af8:	48 89 45 00          	mov    %rax,0x0(%rbp)
  402afc:	48 89 55 08          	mov    %rdx,0x8(%rbp)
  402b00:	48 b8 20 63 6f 6e 6e 	movabs $0x7463656e6e6f6320,%rax
  402b07:	65 63 74 
  402b0a:	48 ba 20 74 6f 20 73 	movabs $0x76726573206f7420,%rdx
  402b11:	65 72 76 
  402b14:	48 89 45 10          	mov    %rax,0x10(%rbp)
  402b18:	48 89 55 18          	mov    %rdx,0x18(%rbp)
  402b1c:	66 c7 45 20 65 72    	movw   $0x7265,0x20(%rbp)
  402b22:	c6 45 22 00          	movb   $0x0,0x22(%rbp)
  402b26:	89 df                	mov    %ebx,%edi
  402b28:	e8 03 e2 ff ff       	callq  400d30 <close@plt>
  402b2d:	b8 ff ff ff ff       	mov    $0xffffffff,%eax
  402b32:	e9 f2 fe ff ff       	jmpq   402a29 <init_driver+0xce>

0000000000402b37 <driver_post>:
  402b37:	53                   	push   %rbx
  402b38:	4c 89 cb             	mov    %r9,%rbx
  402b3b:	45 85 c0             	test   %r8d,%r8d
  402b3e:	75 18                	jne    402b58 <driver_post+0x21>
  402b40:	48 85 ff             	test   %rdi,%rdi
  402b43:	74 05                	je     402b4a <driver_post+0x13>
  402b45:	80 3f 00             	cmpb   $0x0,(%rdi)
  402b48:	75 30                	jne    402b7a <driver_post+0x43>
  402b4a:	66 c7 03 4f 4b       	movw   $0x4b4f,(%rbx)
  402b4f:	c6 43 02 00          	movb   $0x0,0x2(%rbx)
  402b53:	44 89 c0             	mov    %r8d,%eax
  402b56:	5b                   	pop    %rbx
  402b57:	c3                   	retq   
  402b58:	48 89 ce             	mov    %rcx,%rsi
  402b5b:	bf 7c 34 40 00       	mov    $0x40347c,%edi
  402b60:	b8 00 00 00 00       	mov    $0x0,%eax
  402b65:	e8 96 e1 ff ff       	callq  400d00 <printf@plt>
  402b6a:	66 c7 03 4f 4b       	movw   $0x4b4f,(%rbx)
  402b6f:	c6 43 02 00          	movb   $0x0,0x2(%rbx)
  402b73:	b8 00 00 00 00       	mov    $0x0,%eax
  402b78:	eb dc                	jmp    402b56 <driver_post+0x1f>
  402b7a:	48 83 ec 08          	sub    $0x8,%rsp
  402b7e:	41 51                	push   %r9
  402b80:	49 89 c9             	mov    %rcx,%r9
  402b83:	49 89 d0             	mov    %rdx,%r8
  402b86:	48 89 f9             	mov    %rdi,%rcx
  402b89:	48 89 f2             	mov    %rsi,%rdx
  402b8c:	be 9a 3c 00 00       	mov    $0x3c9a,%esi
  402b91:	bf a8 2f 40 00       	mov    $0x402fa8,%edi
  402b96:	e8 5a f6 ff ff       	callq  4021f5 <submitr>
  402b9b:	48 83 c4 10          	add    $0x10,%rsp
  402b9f:	eb b5                	jmp    402b56 <driver_post+0x1f>

0000000000402ba1 <check>:
  402ba1:	89 f8                	mov    %edi,%eax
  402ba3:	c1 e8 1c             	shr    $0x1c,%eax
  402ba6:	74 1d                	je     402bc5 <check+0x24>
  402ba8:	b9 00 00 00 00       	mov    $0x0,%ecx
  402bad:	83 f9 1f             	cmp    $0x1f,%ecx
  402bb0:	7f 0d                	jg     402bbf <check+0x1e>
  402bb2:	89 f8                	mov    %edi,%eax
  402bb4:	d3 e8                	shr    %cl,%eax
  402bb6:	3c 0a                	cmp    $0xa,%al
  402bb8:	74 11                	je     402bcb <check+0x2a>
  402bba:	83 c1 08             	add    $0x8,%ecx
  402bbd:	eb ee                	jmp    402bad <check+0xc>
  402bbf:	b8 01 00 00 00       	mov    $0x1,%eax
  402bc4:	c3                   	retq   
  402bc5:	b8 00 00 00 00       	mov    $0x0,%eax
  402bca:	c3                   	retq   
  402bcb:	b8 00 00 00 00       	mov    $0x0,%eax
  402bd0:	c3                   	retq   

0000000000402bd1 <gencookie>:
  402bd1:	53                   	push   %rbx
  402bd2:	83 c7 01             	add    $0x1,%edi
  402bd5:	e8 c6 e0 ff ff       	callq  400ca0 <srandom@plt>
  402bda:	e8 d1 e1 ff ff       	callq  400db0 <random@plt>
  402bdf:	89 c3                	mov    %eax,%ebx
  402be1:	89 c7                	mov    %eax,%edi
  402be3:	e8 b9 ff ff ff       	callq  402ba1 <check>
  402be8:	85 c0                	test   %eax,%eax
  402bea:	74 ee                	je     402bda <gencookie+0x9>
  402bec:	89 d8                	mov    %ebx,%eax
  402bee:	5b                   	pop    %rbx
  402bef:	c3                   	retq   

0000000000402bf0 <__libc_csu_init>:
  402bf0:	f3 0f 1e fa          	endbr64 
  402bf4:	41 57                	push   %r15
  402bf6:	49 89 d7             	mov    %rdx,%r15
  402bf9:	41 56                	push   %r14
  402bfb:	49 89 f6             	mov    %rsi,%r14
  402bfe:	41 55                	push   %r13
  402c00:	41 89 fd             	mov    %edi,%r13d
  402c03:	41 54                	push   %r12
  402c05:	4c 8d 25 f4 11 20 00 	lea    0x2011f4(%rip),%r12        # 603e00 <__frame_dummy_init_array_entry>
  402c0c:	55                   	push   %rbp
  402c0d:	48 8d 2d f4 11 20 00 	lea    0x2011f4(%rip),%rbp        # 603e08 <__init_array_end>
  402c14:	53                   	push   %rbx
  402c15:	4c 29 e5             	sub    %r12,%rbp
  402c18:	48 83 ec 08          	sub    $0x8,%rsp
  402c1c:	e8 27 e0 ff ff       	callq  400c48 <_init>
  402c21:	48 c1 fd 03          	sar    $0x3,%rbp
  402c25:	74 1f                	je     402c46 <__libc_csu_init+0x56>
  402c27:	31 db                	xor    %ebx,%ebx
  402c29:	0f 1f 80 00 00 00 00 	nopl   0x0(%rax)
  402c30:	4c 89 fa             	mov    %r15,%rdx
  402c33:	4c 89 f6             	mov    %r14,%rsi
  402c36:	44 89 ef             	mov    %r13d,%edi
  402c39:	41 ff 14 dc          	callq  *(%r12,%rbx,8)
  402c3d:	48 83 c3 01          	add    $0x1,%rbx
  402c41:	48 39 dd             	cmp    %rbx,%rbp
  402c44:	75 ea                	jne    402c30 <__libc_csu_init+0x40>
  402c46:	48 83 c4 08          	add    $0x8,%rsp
  402c4a:	5b                   	pop    %rbx
  402c4b:	5d                   	pop    %rbp
  402c4c:	41 5c                	pop    %r12
  402c4e:	41 5d                	pop    %r13
  402c50:	41 5e                	pop    %r14
  402c52:	41 5f                	pop    %r15
  402c54:	c3                   	retq   

0000000000402c55 <.annobin___libc_csu_fini.start>:
  402c55:	66 66 2e 0f 1f 84 00 	data16 nopw %cs:0x0(%rax,%rax,1)
  402c5c:	00 00 00 00 

0000000000402c60 <__libc_csu_fini>:
  402c60:	f3 0f 1e fa          	endbr64 
  402c64:	c3                   	retq   

Disassembly of section .fini:

0000000000402c68 <_fini>:
  402c68:	f3 0f 1e fa          	endbr64 
  402c6c:	48 83 ec 08          	sub    $0x8,%rsp
  402c70:	48 83 c4 08          	add    $0x8,%rsp
  402c74:	c3                   	retq   
