
rtarget:     file format elf64-x86-64


Disassembly of section .init:

0000000000400c48 <_init>:
  400c48:	f3 0f 1e fa          	endbr64 
  400c4c:	48 83 ec 08          	sub    $0x8,%rsp
  400c50:	48 8b 05 99 43 20 00 	mov    0x204399(%rip),%rax        # 604ff0 <__gmon_start__@Base>
  400c57:	48 85 c0             	test   %rax,%rax
  400c5a:	74 02                	je     400c5e <_init+0x16>
  400c5c:	ff d0                	callq  *%rax
  400c5e:	48 83 c4 08          	add    $0x8,%rsp
  400c62:	c3                   	retq   

Disassembly of section .plt:

0000000000400c70 <.plt>:
  400c70:	ff 35 92 43 20 00    	pushq  0x204392(%rip)        # 605008 <_GLOBAL_OFFSET_TABLE_+0x8>
  400c76:	ff 25 94 43 20 00    	jmpq   *0x204394(%rip)        # 605010 <_GLOBAL_OFFSET_TABLE_+0x10>
  400c7c:	0f 1f 40 00          	nopl   0x0(%rax)

0000000000400c80 <strcasecmp@plt>:
  400c80:	ff 25 92 43 20 00    	jmpq   *0x204392(%rip)        # 605018 <strcasecmp@GLIBC_2.2.5>
  400c86:	68 00 00 00 00       	pushq  $0x0
  400c8b:	e9 e0 ff ff ff       	jmpq   400c70 <.plt>

0000000000400c90 <__errno_location@plt>:
  400c90:	ff 25 8a 43 20 00    	jmpq   *0x20438a(%rip)        # 605020 <__errno_location@GLIBC_2.2.5>
  400c96:	68 01 00 00 00       	pushq  $0x1
  400c9b:	e9 d0 ff ff ff       	jmpq   400c70 <.plt>

0000000000400ca0 <srandom@plt>:
  400ca0:	ff 25 82 43 20 00    	jmpq   *0x204382(%rip)        # 605028 <srandom@GLIBC_2.2.5>
  400ca6:	68 02 00 00 00       	pushq  $0x2
  400cab:	e9 c0 ff ff ff       	jmpq   400c70 <.plt>

0000000000400cb0 <strncmp@plt>:
  400cb0:	ff 25 7a 43 20 00    	jmpq   *0x20437a(%rip)        # 605030 <strncmp@GLIBC_2.2.5>
  400cb6:	68 03 00 00 00       	pushq  $0x3
  400cbb:	e9 b0 ff ff ff       	jmpq   400c70 <.plt>

0000000000400cc0 <strcpy@plt>:
  400cc0:	ff 25 72 43 20 00    	jmpq   *0x204372(%rip)        # 605038 <strcpy@GLIBC_2.2.5>
  400cc6:	68 04 00 00 00       	pushq  $0x4
  400ccb:	e9 a0 ff ff ff       	jmpq   400c70 <.plt>

0000000000400cd0 <puts@plt>:
  400cd0:	ff 25 6a 43 20 00    	jmpq   *0x20436a(%rip)        # 605040 <puts@GLIBC_2.2.5>
  400cd6:	68 05 00 00 00       	pushq  $0x5
  400cdb:	e9 90 ff ff ff       	jmpq   400c70 <.plt>

0000000000400ce0 <write@plt>:
  400ce0:	ff 25 62 43 20 00    	jmpq   *0x204362(%rip)        # 605048 <write@GLIBC_2.2.5>
  400ce6:	68 06 00 00 00       	pushq  $0x6
  400ceb:	e9 80 ff ff ff       	jmpq   400c70 <.plt>

0000000000400cf0 <mmap@plt>:
  400cf0:	ff 25 5a 43 20 00    	jmpq   *0x20435a(%rip)        # 605050 <mmap@GLIBC_2.2.5>
  400cf6:	68 07 00 00 00       	pushq  $0x7
  400cfb:	e9 70 ff ff ff       	jmpq   400c70 <.plt>

0000000000400d00 <printf@plt>:
  400d00:	ff 25 52 43 20 00    	jmpq   *0x204352(%rip)        # 605058 <printf@GLIBC_2.2.5>
  400d06:	68 08 00 00 00       	pushq  $0x8
  400d0b:	e9 60 ff ff ff       	jmpq   400c70 <.plt>

0000000000400d10 <memset@plt>:
  400d10:	ff 25 4a 43 20 00    	jmpq   *0x20434a(%rip)        # 605060 <memset@GLIBC_2.2.5>
  400d16:	68 09 00 00 00       	pushq  $0x9
  400d1b:	e9 50 ff ff ff       	jmpq   400c70 <.plt>

0000000000400d20 <alarm@plt>:
  400d20:	ff 25 42 43 20 00    	jmpq   *0x204342(%rip)        # 605068 <alarm@GLIBC_2.2.5>
  400d26:	68 0a 00 00 00       	pushq  $0xa
  400d2b:	e9 40 ff ff ff       	jmpq   400c70 <.plt>

0000000000400d30 <close@plt>:
  400d30:	ff 25 3a 43 20 00    	jmpq   *0x20433a(%rip)        # 605070 <close@GLIBC_2.2.5>
  400d36:	68 0b 00 00 00       	pushq  $0xb
  400d3b:	e9 30 ff ff ff       	jmpq   400c70 <.plt>

0000000000400d40 <read@plt>:
  400d40:	ff 25 32 43 20 00    	jmpq   *0x204332(%rip)        # 605078 <read@GLIBC_2.2.5>
  400d46:	68 0c 00 00 00       	pushq  $0xc
  400d4b:	e9 20 ff ff ff       	jmpq   400c70 <.plt>

0000000000400d50 <signal@plt>:
  400d50:	ff 25 2a 43 20 00    	jmpq   *0x20432a(%rip)        # 605080 <signal@GLIBC_2.2.5>
  400d56:	68 0d 00 00 00       	pushq  $0xd
  400d5b:	e9 10 ff ff ff       	jmpq   400c70 <.plt>

0000000000400d60 <gethostbyname@plt>:
  400d60:	ff 25 22 43 20 00    	jmpq   *0x204322(%rip)        # 605088 <gethostbyname@GLIBC_2.2.5>
  400d66:	68 0e 00 00 00       	pushq  $0xe
  400d6b:	e9 00 ff ff ff       	jmpq   400c70 <.plt>

0000000000400d70 <fprintf@plt>:
  400d70:	ff 25 1a 43 20 00    	jmpq   *0x20431a(%rip)        # 605090 <fprintf@GLIBC_2.2.5>
  400d76:	68 0f 00 00 00       	pushq  $0xf
  400d7b:	e9 f0 fe ff ff       	jmpq   400c70 <.plt>

0000000000400d80 <strtol@plt>:
  400d80:	ff 25 12 43 20 00    	jmpq   *0x204312(%rip)        # 605098 <strtol@GLIBC_2.2.5>
  400d86:	68 10 00 00 00       	pushq  $0x10
  400d8b:	e9 e0 fe ff ff       	jmpq   400c70 <.plt>

0000000000400d90 <memcpy@plt>:
  400d90:	ff 25 0a 43 20 00    	jmpq   *0x20430a(%rip)        # 6050a0 <memcpy@GLIBC_2.14>
  400d96:	68 11 00 00 00       	pushq  $0x11
  400d9b:	e9 d0 fe ff ff       	jmpq   400c70 <.plt>

0000000000400da0 <time@plt>:
  400da0:	ff 25 02 43 20 00    	jmpq   *0x204302(%rip)        # 6050a8 <time@GLIBC_2.2.5>
  400da6:	68 12 00 00 00       	pushq  $0x12
  400dab:	e9 c0 fe ff ff       	jmpq   400c70 <.plt>

0000000000400db0 <random@plt>:
  400db0:	ff 25 fa 42 20 00    	jmpq   *0x2042fa(%rip)        # 6050b0 <random@GLIBC_2.2.5>
  400db6:	68 13 00 00 00       	pushq  $0x13
  400dbb:	e9 b0 fe ff ff       	jmpq   400c70 <.plt>

0000000000400dc0 <__isoc99_sscanf@plt>:
  400dc0:	ff 25 f2 42 20 00    	jmpq   *0x2042f2(%rip)        # 6050b8 <__isoc99_sscanf@GLIBC_2.7>
  400dc6:	68 14 00 00 00       	pushq  $0x14
  400dcb:	e9 a0 fe ff ff       	jmpq   400c70 <.plt>

0000000000400dd0 <munmap@plt>:
  400dd0:	ff 25 ea 42 20 00    	jmpq   *0x2042ea(%rip)        # 6050c0 <munmap@GLIBC_2.2.5>
  400dd6:	68 15 00 00 00       	pushq  $0x15
  400ddb:	e9 90 fe ff ff       	jmpq   400c70 <.plt>

0000000000400de0 <memmove@plt>:
  400de0:	ff 25 e2 42 20 00    	jmpq   *0x2042e2(%rip)        # 6050c8 <memmove@GLIBC_2.2.5>
  400de6:	68 16 00 00 00       	pushq  $0x16
  400deb:	e9 80 fe ff ff       	jmpq   400c70 <.plt>

0000000000400df0 <fopen@plt>:
  400df0:	ff 25 da 42 20 00    	jmpq   *0x2042da(%rip)        # 6050d0 <fopen@GLIBC_2.2.5>
  400df6:	68 17 00 00 00       	pushq  $0x17
  400dfb:	e9 70 fe ff ff       	jmpq   400c70 <.plt>

0000000000400e00 <getopt@plt>:
  400e00:	ff 25 d2 42 20 00    	jmpq   *0x2042d2(%rip)        # 6050d8 <getopt@GLIBC_2.2.5>
  400e06:	68 18 00 00 00       	pushq  $0x18
  400e0b:	e9 60 fe ff ff       	jmpq   400c70 <.plt>

0000000000400e10 <strtoul@plt>:
  400e10:	ff 25 ca 42 20 00    	jmpq   *0x2042ca(%rip)        # 6050e0 <strtoul@GLIBC_2.2.5>
  400e16:	68 19 00 00 00       	pushq  $0x19
  400e1b:	e9 50 fe ff ff       	jmpq   400c70 <.plt>

0000000000400e20 <gethostname@plt>:
  400e20:	ff 25 c2 42 20 00    	jmpq   *0x2042c2(%rip)        # 6050e8 <gethostname@GLIBC_2.2.5>
  400e26:	68 1a 00 00 00       	pushq  $0x1a
  400e2b:	e9 40 fe ff ff       	jmpq   400c70 <.plt>

0000000000400e30 <sprintf@plt>:
  400e30:	ff 25 ba 42 20 00    	jmpq   *0x2042ba(%rip)        # 6050f0 <sprintf@GLIBC_2.2.5>
  400e36:	68 1b 00 00 00       	pushq  $0x1b
  400e3b:	e9 30 fe ff ff       	jmpq   400c70 <.plt>

0000000000400e40 <exit@plt>:
  400e40:	ff 25 b2 42 20 00    	jmpq   *0x2042b2(%rip)        # 6050f8 <exit@GLIBC_2.2.5>
  400e46:	68 1c 00 00 00       	pushq  $0x1c
  400e4b:	e9 20 fe ff ff       	jmpq   400c70 <.plt>

0000000000400e50 <connect@plt>:
  400e50:	ff 25 aa 42 20 00    	jmpq   *0x2042aa(%rip)        # 605100 <connect@GLIBC_2.2.5>
  400e56:	68 1d 00 00 00       	pushq  $0x1d
  400e5b:	e9 10 fe ff ff       	jmpq   400c70 <.plt>

0000000000400e60 <getc@plt>:
  400e60:	ff 25 a2 42 20 00    	jmpq   *0x2042a2(%rip)        # 605108 <getc@GLIBC_2.2.5>
  400e66:	68 1e 00 00 00       	pushq  $0x1e
  400e6b:	e9 00 fe ff ff       	jmpq   400c70 <.plt>

0000000000400e70 <socket@plt>:
  400e70:	ff 25 9a 42 20 00    	jmpq   *0x20429a(%rip)        # 605110 <socket@GLIBC_2.2.5>
  400e76:	68 1f 00 00 00       	pushq  $0x1f
  400e7b:	e9 f0 fd ff ff       	jmpq   400c70 <.plt>

Disassembly of section .text:

0000000000400e80 <_start>:
  400e80:	f3 0f 1e fa          	endbr64 
  400e84:	31 ed                	xor    %ebp,%ebp
  400e86:	49 89 d1             	mov    %rdx,%r9
  400e89:	5e                   	pop    %rsi
  400e8a:	48 89 e2             	mov    %rsp,%rdx
  400e8d:	48 83 e4 f0          	and    $0xfffffffffffffff0,%rsp
  400e91:	50                   	push   %rax
  400e92:	54                   	push   %rsp
  400e93:	49 c7 c0 80 2d 40 00 	mov    $0x402d80,%r8
  400e9a:	48 c7 c1 10 2d 40 00 	mov    $0x402d10,%rcx
  400ea1:	48 c7 c7 2f 11 40 00 	mov    $0x40112f,%rdi
  400ea8:	ff 15 3a 41 20 00    	callq  *0x20413a(%rip)        # 604fe8 <__libc_start_main@GLIBC_2.2.5>
  400eae:	f4                   	hlt    

0000000000400eaf <.annobin_init.c>:
  400eaf:	90                   	nop

0000000000400eb0 <_dl_relocate_static_pie>:
  400eb0:	f3 0f 1e fa          	endbr64 
  400eb4:	c3                   	retq   

0000000000400eb5 <.annobin__dl_relocate_static_pie.end>:
  400eb5:	66 2e 0f 1f 84 00 00 	nopw   %cs:0x0(%rax,%rax,1)
  400ebc:	00 00 00 
  400ebf:	90                   	nop

0000000000400ec0 <deregister_tm_clones>:
  400ec0:	48 8d 3d c9 45 20 00 	lea    0x2045c9(%rip),%rdi        # 605490 <__TMC_END__>
  400ec7:	48 8d 05 c2 45 20 00 	lea    0x2045c2(%rip),%rax        # 605490 <__TMC_END__>
  400ece:	48 39 f8             	cmp    %rdi,%rax
  400ed1:	74 15                	je     400ee8 <deregister_tm_clones+0x28>
  400ed3:	48 8b 05 06 41 20 00 	mov    0x204106(%rip),%rax        # 604fe0 <_ITM_deregisterTMCloneTable@Base>
  400eda:	48 85 c0             	test   %rax,%rax
  400edd:	74 09                	je     400ee8 <deregister_tm_clones+0x28>
  400edf:	ff e0                	jmpq   *%rax
  400ee1:	0f 1f 80 00 00 00 00 	nopl   0x0(%rax)
  400ee8:	c3                   	retq   
  400ee9:	0f 1f 80 00 00 00 00 	nopl   0x0(%rax)

0000000000400ef0 <register_tm_clones>:
  400ef0:	48 8d 3d 99 45 20 00 	lea    0x204599(%rip),%rdi        # 605490 <__TMC_END__>
  400ef7:	48 8d 35 92 45 20 00 	lea    0x204592(%rip),%rsi        # 605490 <__TMC_END__>
  400efe:	48 29 fe             	sub    %rdi,%rsi
  400f01:	48 c1 fe 03          	sar    $0x3,%rsi
  400f05:	48 89 f0             	mov    %rsi,%rax
  400f08:	48 c1 e8 3f          	shr    $0x3f,%rax
  400f0c:	48 01 c6             	add    %rax,%rsi
  400f0f:	48 d1 fe             	sar    %rsi
  400f12:	74 14                	je     400f28 <register_tm_clones+0x38>
  400f14:	48 8b 05 dd 40 20 00 	mov    0x2040dd(%rip),%rax        # 604ff8 <_ITM_registerTMCloneTable@Base>
  400f1b:	48 85 c0             	test   %rax,%rax
  400f1e:	74 08                	je     400f28 <register_tm_clones+0x38>
  400f20:	ff e0                	jmpq   *%rax
  400f22:	66 0f 1f 44 00 00    	nopw   0x0(%rax,%rax,1)
  400f28:	c3                   	retq   
  400f29:	0f 1f 80 00 00 00 00 	nopl   0x0(%rax)

0000000000400f30 <__do_global_dtors_aux>:
  400f30:	f3 0f 1e fa          	endbr64 
  400f34:	80 3d 8d 45 20 00 00 	cmpb   $0x0,0x20458d(%rip)        # 6054c8 <completed.7302>
  400f3b:	75 13                	jne    400f50 <__do_global_dtors_aux+0x20>
  400f3d:	55                   	push   %rbp
  400f3e:	48 89 e5             	mov    %rsp,%rbp
  400f41:	e8 7a ff ff ff       	callq  400ec0 <deregister_tm_clones>
  400f46:	c6 05 7b 45 20 00 01 	movb   $0x1,0x20457b(%rip)        # 6054c8 <completed.7302>
  400f4d:	5d                   	pop    %rbp
  400f4e:	c3                   	retq   
  400f4f:	90                   	nop
  400f50:	c3                   	retq   
  400f51:	66 66 2e 0f 1f 84 00 	data16 nopw %cs:0x0(%rax,%rax,1)
  400f58:	00 00 00 00 
  400f5c:	0f 1f 40 00          	nopl   0x0(%rax)

0000000000400f60 <frame_dummy>:
  400f60:	f3 0f 1e fa          	endbr64 
  400f64:	eb 8a                	jmp    400ef0 <register_tm_clones>

0000000000400f66 <usage>:
  400f66:	48 83 ec 08          	sub    $0x8,%rsp
  400f6a:	48 89 fe             	mov    %rdi,%rsi
  400f6d:	83 3d 94 45 20 00 00 	cmpl   $0x0,0x204594(%rip)        # 605508 <is_checker>
  400f74:	74 41                	je     400fb7 <usage+0x51>
  400f76:	bf b0 2d 40 00       	mov    $0x402db0,%edi
  400f7b:	b8 00 00 00 00       	mov    $0x0,%eax
  400f80:	e8 7b fd ff ff       	callq  400d00 <printf@plt>
  400f85:	bf e8 2d 40 00       	mov    $0x402de8,%edi
  400f8a:	e8 41 fd ff ff       	callq  400cd0 <puts@plt>
  400f8f:	bf 60 2f 40 00       	mov    $0x402f60,%edi
  400f94:	e8 37 fd ff ff       	callq  400cd0 <puts@plt>
  400f99:	bf 10 2e 40 00       	mov    $0x402e10,%edi
  400f9e:	e8 2d fd ff ff       	callq  400cd0 <puts@plt>
  400fa3:	bf 7a 2f 40 00       	mov    $0x402f7a,%edi
  400fa8:	e8 23 fd ff ff       	callq  400cd0 <puts@plt>
  400fad:	bf 00 00 00 00       	mov    $0x0,%edi
  400fb2:	e8 89 fe ff ff       	callq  400e40 <exit@plt>
  400fb7:	bf 96 2f 40 00       	mov    $0x402f96,%edi
  400fbc:	b8 00 00 00 00       	mov    $0x0,%eax
  400fc1:	e8 3a fd ff ff       	callq  400d00 <printf@plt>
  400fc6:	bf 38 2e 40 00       	mov    $0x402e38,%edi
  400fcb:	e8 00 fd ff ff       	callq  400cd0 <puts@plt>
  400fd0:	bf 60 2e 40 00       	mov    $0x402e60,%edi
  400fd5:	e8 f6 fc ff ff       	callq  400cd0 <puts@plt>
  400fda:	bf b4 2f 40 00       	mov    $0x402fb4,%edi
  400fdf:	e8 ec fc ff ff       	callq  400cd0 <puts@plt>
  400fe4:	eb c7                	jmp    400fad <usage+0x47>

0000000000400fe6 <initialize_target>:
  400fe6:	55                   	push   %rbp
  400fe7:	53                   	push   %rbx
  400fe8:	48 81 ec 08 21 00 00 	sub    $0x2108,%rsp
  400fef:	89 f5                	mov    %esi,%ebp
  400ff1:	89 3d 01 45 20 00    	mov    %edi,0x204501(%rip)        # 6054f8 <check_level>
  400ff7:	8b 3d 4b 41 20 00    	mov    0x20414b(%rip),%edi        # 605148 <target_id>
  400ffd:	e8 ef 1c 00 00       	callq  402cf1 <gencookie>
  401002:	89 05 fc 44 20 00    	mov    %eax,0x2044fc(%rip)        # 605504 <cookie>
  401008:	89 c7                	mov    %eax,%edi
  40100a:	e8 e2 1c 00 00       	callq  402cf1 <gencookie>
  40100f:	89 05 eb 44 20 00    	mov    %eax,0x2044eb(%rip)        # 605500 <authkey>
  401015:	8b 05 2d 41 20 00    	mov    0x20412d(%rip),%eax        # 605148 <target_id>
  40101b:	8d 78 01             	lea    0x1(%rax),%edi
  40101e:	e8 7d fc ff ff       	callq  400ca0 <srandom@plt>
  401023:	e8 88 fd ff ff       	callq  400db0 <random@plt>
  401028:	89 c7                	mov    %eax,%edi
  40102a:	e8 b8 02 00 00       	callq  4012e7 <scramble>
  40102f:	89 c3                	mov    %eax,%ebx
  401031:	85 ed                	test   %ebp,%ebp
  401033:	75 3d                	jne    401072 <initialize_target+0x8c>
  401035:	b8 00 00 00 00       	mov    $0x0,%eax
  40103a:	01 d8                	add    %ebx,%eax
  40103c:	0f b7 c0             	movzwl %ax,%eax
  40103f:	8d 04 c5 00 01 00 00 	lea    0x100(,%rax,8),%eax
  401046:	89 c0                	mov    %eax,%eax
  401048:	48 89 05 31 44 20 00 	mov    %rax,0x204431(%rip)        # 605480 <buf_offset>
  40104f:	c6 05 d2 50 20 00 72 	movb   $0x72,0x2050d2(%rip)        # 606128 <target_prefix>
  401056:	83 3d 2b 44 20 00 00 	cmpl   $0x0,0x20442b(%rip)        # 605488 <notify>
  40105d:	74 09                	je     401068 <initialize_target+0x82>
  40105f:	83 3d a2 44 20 00 00 	cmpl   $0x0,0x2044a2(%rip)        # 605508 <is_checker>
  401066:	74 22                	je     40108a <initialize_target+0xa4>
  401068:	48 81 c4 08 21 00 00 	add    $0x2108,%rsp
  40106f:	5b                   	pop    %rbx
  401070:	5d                   	pop    %rbp
  401071:	c3                   	retq   
  401072:	bf 00 00 00 00       	mov    $0x0,%edi
  401077:	e8 24 fd ff ff       	callq  400da0 <time@plt>
  40107c:	89 c7                	mov    %eax,%edi
  40107e:	e8 1d fc ff ff       	callq  400ca0 <srandom@plt>
  401083:	e8 28 fd ff ff       	callq  400db0 <random@plt>
  401088:	eb b0                	jmp    40103a <initialize_target+0x54>
  40108a:	be 00 01 00 00       	mov    $0x100,%esi
  40108f:	48 89 e7             	mov    %rsp,%rdi
  401092:	e8 89 fd ff ff       	callq  400e20 <gethostname@plt>
  401097:	89 c5                	mov    %eax,%ebp
  401099:	85 c0                	test   %eax,%eax
  40109b:	75 23                	jne    4010c0 <initialize_target+0xda>
  40109d:	89 c3                	mov    %eax,%ebx
  40109f:	48 63 c3             	movslq %ebx,%rax
  4010a2:	48 8b 3c c5 60 51 60 	mov    0x605160(,%rax,8),%rdi
  4010a9:	00 
  4010aa:	48 85 ff             	test   %rdi,%rdi
  4010ad:	74 2a                	je     4010d9 <initialize_target+0xf3>
  4010af:	48 89 e6             	mov    %rsp,%rsi
  4010b2:	e8 c9 fb ff ff       	callq  400c80 <strcasecmp@plt>
  4010b7:	85 c0                	test   %eax,%eax
  4010b9:	74 19                	je     4010d4 <initialize_target+0xee>
  4010bb:	83 c3 01             	add    $0x1,%ebx
  4010be:	eb df                	jmp    40109f <initialize_target+0xb9>
  4010c0:	bf 90 2e 40 00       	mov    $0x402e90,%edi
  4010c5:	e8 06 fc ff ff       	callq  400cd0 <puts@plt>
  4010ca:	bf 08 00 00 00       	mov    $0x8,%edi
  4010cf:	e8 6c fd ff ff       	callq  400e40 <exit@plt>
  4010d4:	bd 01 00 00 00       	mov    $0x1,%ebp
  4010d9:	85 ed                	test   %ebp,%ebp
  4010db:	74 36                	je     401113 <initialize_target+0x12d>
  4010dd:	48 8d bc 24 00 01 00 	lea    0x100(%rsp),%rdi
  4010e4:	00 
  4010e5:	e8 91 19 00 00       	callq  402a7b <init_driver>
  4010ea:	85 c0                	test   %eax,%eax
  4010ec:	0f 89 76 ff ff ff    	jns    401068 <initialize_target+0x82>
  4010f2:	48 8d b4 24 00 01 00 	lea    0x100(%rsp),%rsi
  4010f9:	00 
  4010fa:	bf 08 2f 40 00       	mov    $0x402f08,%edi
  4010ff:	b8 00 00 00 00       	mov    $0x0,%eax
  401104:	e8 f7 fb ff ff       	callq  400d00 <printf@plt>
  401109:	bf 08 00 00 00       	mov    $0x8,%edi
  40110e:	e8 2d fd ff ff       	callq  400e40 <exit@plt>
  401113:	48 89 e6             	mov    %rsp,%rsi
  401116:	bf c8 2e 40 00       	mov    $0x402ec8,%edi
  40111b:	b8 00 00 00 00       	mov    $0x0,%eax
  401120:	e8 db fb ff ff       	callq  400d00 <printf@plt>
  401125:	bf 08 00 00 00       	mov    $0x8,%edi
  40112a:	e8 11 fd ff ff       	callq  400e40 <exit@plt>

000000000040112f <main>:
  40112f:	41 56                	push   %r14
  401131:	41 55                	push   %r13
  401133:	41 54                	push   %r12
  401135:	55                   	push   %rbp
  401136:	53                   	push   %rbx
  401137:	89 fd                	mov    %edi,%ebp
  401139:	48 89 f3             	mov    %rsi,%rbx
  40113c:	be 80 1e 40 00       	mov    $0x401e80,%esi
  401141:	bf 0b 00 00 00       	mov    $0xb,%edi
  401146:	e8 05 fc ff ff       	callq  400d50 <signal@plt>
  40114b:	be 32 1e 40 00       	mov    $0x401e32,%esi
  401150:	bf 07 00 00 00       	mov    $0x7,%edi
  401155:	e8 f6 fb ff ff       	callq  400d50 <signal@plt>
  40115a:	be ce 1e 40 00       	mov    $0x401ece,%esi
  40115f:	bf 04 00 00 00       	mov    $0x4,%edi
  401164:	e8 e7 fb ff ff       	callq  400d50 <signal@plt>
  401169:	83 3d 98 43 20 00 00 	cmpl   $0x0,0x204398(%rip)        # 605508 <is_checker>
  401170:	75 25                	jne    401197 <main+0x68>
  401172:	41 bc d5 2f 40 00    	mov    $0x402fd5,%r12d
  401178:	48 8b 05 21 43 20 00 	mov    0x204321(%rip),%rax        # 6054a0 <stdin@@GLIBC_2.2.5>
  40117f:	48 89 05 6a 43 20 00 	mov    %rax,0x20436a(%rip)        # 6054f0 <infile>
  401186:	41 bd 00 00 00 00    	mov    $0x0,%r13d
  40118c:	41 be 00 00 00 00    	mov    $0x0,%r14d
  401192:	e9 81 00 00 00       	jmpq   401218 <main+0xe9>
  401197:	be 1c 1f 40 00       	mov    $0x401f1c,%esi
  40119c:	bf 0e 00 00 00       	mov    $0xe,%edi
  4011a1:	e8 aa fb ff ff       	callq  400d50 <signal@plt>
  4011a6:	bf 05 00 00 00       	mov    $0x5,%edi
  4011ab:	e8 70 fb ff ff       	callq  400d20 <alarm@plt>
  4011b0:	41 bc cd 2f 40 00    	mov    $0x402fcd,%r12d
  4011b6:	eb c0                	jmp    401178 <main+0x49>
  4011b8:	48 8b 3b             	mov    (%rbx),%rdi
  4011bb:	e8 a6 fd ff ff       	callq  400f66 <usage>
  4011c0:	be 95 32 40 00       	mov    $0x403295,%esi
  4011c5:	48 8b 3d dc 42 20 00 	mov    0x2042dc(%rip),%rdi        # 6054a8 <optarg@@GLIBC_2.2.5>
  4011cc:	e8 1f fc ff ff       	callq  400df0 <fopen@plt>
  4011d1:	48 89 05 18 43 20 00 	mov    %rax,0x204318(%rip)        # 6054f0 <infile>
  4011d8:	48 85 c0             	test   %rax,%rax
  4011db:	75 3b                	jne    401218 <main+0xe9>
  4011dd:	48 8b 15 c4 42 20 00 	mov    0x2042c4(%rip),%rdx        # 6054a8 <optarg@@GLIBC_2.2.5>
  4011e4:	be da 2f 40 00       	mov    $0x402fda,%esi
  4011e9:	48 8b 3d d0 42 20 00 	mov    0x2042d0(%rip),%rdi        # 6054c0 <stderr@@GLIBC_2.2.5>
  4011f0:	e8 7b fb ff ff       	callq  400d70 <fprintf@plt>
  4011f5:	b8 01 00 00 00       	mov    $0x1,%eax
  4011fa:	e9 c1 00 00 00       	jmpq   4012c0 <main+0x191>
  4011ff:	ba 10 00 00 00       	mov    $0x10,%edx
  401204:	be 00 00 00 00       	mov    $0x0,%esi
  401209:	48 8b 3d 98 42 20 00 	mov    0x204298(%rip),%rdi        # 6054a8 <optarg@@GLIBC_2.2.5>
  401210:	e8 fb fb ff ff       	callq  400e10 <strtoul@plt>
  401215:	41 89 c6             	mov    %eax,%r14d
  401218:	4c 89 e2             	mov    %r12,%rdx
  40121b:	48 89 de             	mov    %rbx,%rsi
  40121e:	89 ef                	mov    %ebp,%edi
  401220:	e8 db fb ff ff       	callq  400e00 <getopt@plt>
  401225:	3c ff                	cmp    $0xff,%al
  401227:	74 52                	je     40127b <main+0x14c>
  401229:	0f be f0             	movsbl %al,%esi
  40122c:	83 e8 61             	sub    $0x61,%eax
  40122f:	3c 10                	cmp    $0x10,%al
  401231:	77 31                	ja     401264 <main+0x135>
  401233:	0f b6 c0             	movzbl %al,%eax
  401236:	ff 24 c5 18 30 40 00 	jmpq   *0x403018(,%rax,8)
  40123d:	ba 0a 00 00 00       	mov    $0xa,%edx
  401242:	be 00 00 00 00       	mov    $0x0,%esi
  401247:	48 8b 3d 5a 42 20 00 	mov    0x20425a(%rip),%rdi        # 6054a8 <optarg@@GLIBC_2.2.5>
  40124e:	e8 2d fb ff ff       	callq  400d80 <strtol@plt>
  401253:	41 89 c5             	mov    %eax,%r13d
  401256:	eb c0                	jmp    401218 <main+0xe9>
  401258:	c7 05 26 42 20 00 00 	movl   $0x0,0x204226(%rip)        # 605488 <notify>
  40125f:	00 00 00 
  401262:	eb b4                	jmp    401218 <main+0xe9>
  401264:	bf f7 2f 40 00       	mov    $0x402ff7,%edi
  401269:	b8 00 00 00 00       	mov    $0x0,%eax
  40126e:	e8 8d fa ff ff       	callq  400d00 <printf@plt>
  401273:	48 8b 3b             	mov    (%rbx),%rdi
  401276:	e8 eb fc ff ff       	callq  400f66 <usage>
  40127b:	be 01 00 00 00       	mov    $0x1,%esi
  401280:	44 89 ef             	mov    %r13d,%edi
  401283:	e8 5e fd ff ff       	callq  400fe6 <initialize_target>
  401288:	83 3d 79 42 20 00 00 	cmpl   $0x0,0x204279(%rip)        # 605508 <is_checker>
  40128f:	74 09                	je     40129a <main+0x16b>
  401291:	44 39 35 68 42 20 00 	cmp    %r14d,0x204268(%rip)        # 605500 <authkey>
  401298:	75 2f                	jne    4012c9 <main+0x19a>
  40129a:	8b 35 64 42 20 00    	mov    0x204264(%rip),%esi        # 605504 <cookie>
  4012a0:	bf 0a 30 40 00       	mov    $0x40300a,%edi
  4012a5:	b8 00 00 00 00       	mov    $0x0,%eax
  4012aa:	e8 51 fa ff ff       	callq  400d00 <printf@plt>
  4012af:	48 8b 3d ca 41 20 00 	mov    0x2041ca(%rip),%rdi        # 605480 <buf_offset>
  4012b6:	e8 af 0c 00 00       	callq  401f6a <launch>
  4012bb:	b8 00 00 00 00       	mov    $0x0,%eax
  4012c0:	5b                   	pop    %rbx
  4012c1:	5d                   	pop    %rbp
  4012c2:	41 5c                	pop    %r12
  4012c4:	41 5d                	pop    %r13
  4012c6:	41 5e                	pop    %r14
  4012c8:	c3                   	retq   
  4012c9:	44 89 f6             	mov    %r14d,%esi
  4012cc:	bf 30 2f 40 00       	mov    $0x402f30,%edi
  4012d1:	b8 00 00 00 00       	mov    $0x0,%eax
  4012d6:	e8 25 fa ff ff       	callq  400d00 <printf@plt>
  4012db:	b8 00 00 00 00       	mov    $0x0,%eax
  4012e0:	e8 51 08 00 00       	callq  401b36 <check_fail>
  4012e5:	eb b3                	jmp    40129a <main+0x16b>

00000000004012e7 <scramble>:
  4012e7:	b8 00 00 00 00       	mov    $0x0,%eax
  4012ec:	83 f8 09             	cmp    $0x9,%eax
  4012ef:	77 13                	ja     401304 <scramble+0x1d>
  4012f1:	69 d0 49 1a 00 00    	imul   $0x1a49,%eax,%edx
  4012f7:	01 fa                	add    %edi,%edx
  4012f9:	89 c1                	mov    %eax,%ecx
  4012fb:	89 54 8c d0          	mov    %edx,-0x30(%rsp,%rcx,4)
  4012ff:	83 c0 01             	add    $0x1,%eax
  401302:	eb e8                	jmp    4012ec <scramble+0x5>
  401304:	8b 44 24 d4          	mov    -0x2c(%rsp),%eax
  401308:	69 c0 e7 ba 00 00    	imul   $0xbae7,%eax,%eax
  40130e:	89 44 24 d4          	mov    %eax,-0x2c(%rsp)
  401312:	8b 44 24 f4          	mov    -0xc(%rsp),%eax
  401316:	69 c0 3c 06 00 00    	imul   $0x63c,%eax,%eax
  40131c:	89 44 24 f4          	mov    %eax,-0xc(%rsp)
  401320:	8b 44 24 e4          	mov    -0x1c(%rsp),%eax
  401324:	69 c0 95 0f 00 00    	imul   $0xf95,%eax,%eax
  40132a:	89 44 24 e4          	mov    %eax,-0x1c(%rsp)
  40132e:	8b 44 24 d8          	mov    -0x28(%rsp),%eax
  401332:	69 c0 c4 f3 00 00    	imul   $0xf3c4,%eax,%eax
  401338:	89 44 24 d8          	mov    %eax,-0x28(%rsp)
  40133c:	8b 44 24 f4          	mov    -0xc(%rsp),%eax
  401340:	69 c0 e0 31 00 00    	imul   $0x31e0,%eax,%eax
  401346:	89 44 24 f4          	mov    %eax,-0xc(%rsp)
  40134a:	8b 44 24 e0          	mov    -0x20(%rsp),%eax
  40134e:	69 c0 3b e6 00 00    	imul   $0xe63b,%eax,%eax
  401354:	89 44 24 e0          	mov    %eax,-0x20(%rsp)
  401358:	8b 44 24 d0          	mov    -0x30(%rsp),%eax
  40135c:	69 c0 8b dc 00 00    	imul   $0xdc8b,%eax,%eax
  401362:	89 44 24 d0          	mov    %eax,-0x30(%rsp)
  401366:	8b 44 24 f4          	mov    -0xc(%rsp),%eax
  40136a:	69 c0 76 96 00 00    	imul   $0x9676,%eax,%eax
  401370:	89 44 24 f4          	mov    %eax,-0xc(%rsp)
  401374:	8b 44 24 e0          	mov    -0x20(%rsp),%eax
  401378:	69 c0 f2 25 00 00    	imul   $0x25f2,%eax,%eax
  40137e:	89 44 24 e0          	mov    %eax,-0x20(%rsp)
  401382:	8b 44 24 ec          	mov    -0x14(%rsp),%eax
  401386:	69 c0 a9 0c 00 00    	imul   $0xca9,%eax,%eax
  40138c:	89 44 24 ec          	mov    %eax,-0x14(%rsp)
  401390:	8b 44 24 ec          	mov    -0x14(%rsp),%eax
  401394:	69 c0 31 b8 00 00    	imul   $0xb831,%eax,%eax
  40139a:	89 44 24 ec          	mov    %eax,-0x14(%rsp)
  40139e:	8b 44 24 d4          	mov    -0x2c(%rsp),%eax
  4013a2:	69 c0 e5 b5 00 00    	imul   $0xb5e5,%eax,%eax
  4013a8:	89 44 24 d4          	mov    %eax,-0x2c(%rsp)
  4013ac:	8b 44 24 e8          	mov    -0x18(%rsp),%eax
  4013b0:	69 c0 c5 37 00 00    	imul   $0x37c5,%eax,%eax
  4013b6:	89 44 24 e8          	mov    %eax,-0x18(%rsp)
  4013ba:	8b 44 24 e8          	mov    -0x18(%rsp),%eax
  4013be:	69 c0 a0 f5 00 00    	imul   $0xf5a0,%eax,%eax
  4013c4:	89 44 24 e8          	mov    %eax,-0x18(%rsp)
  4013c8:	8b 44 24 dc          	mov    -0x24(%rsp),%eax
  4013cc:	69 c0 15 db 00 00    	imul   $0xdb15,%eax,%eax
  4013d2:	89 44 24 dc          	mov    %eax,-0x24(%rsp)
  4013d6:	8b 44 24 e0          	mov    -0x20(%rsp),%eax
  4013da:	69 c0 37 b9 00 00    	imul   $0xb937,%eax,%eax
  4013e0:	89 44 24 e0          	mov    %eax,-0x20(%rsp)
  4013e4:	8b 44 24 e4          	mov    -0x1c(%rsp),%eax
  4013e8:	69 c0 57 e9 00 00    	imul   $0xe957,%eax,%eax
  4013ee:	89 44 24 e4          	mov    %eax,-0x1c(%rsp)
  4013f2:	8b 44 24 d0          	mov    -0x30(%rsp),%eax
  4013f6:	69 c0 08 a1 00 00    	imul   $0xa108,%eax,%eax
  4013fc:	89 44 24 d0          	mov    %eax,-0x30(%rsp)
  401400:	8b 44 24 d0          	mov    -0x30(%rsp),%eax
  401404:	69 c0 25 d3 00 00    	imul   $0xd325,%eax,%eax
  40140a:	89 44 24 d0          	mov    %eax,-0x30(%rsp)
  40140e:	8b 44 24 dc          	mov    -0x24(%rsp),%eax
  401412:	69 c0 8d 17 00 00    	imul   $0x178d,%eax,%eax
  401418:	89 44 24 dc          	mov    %eax,-0x24(%rsp)
  40141c:	8b 44 24 e8          	mov    -0x18(%rsp),%eax
  401420:	69 c0 37 a0 00 00    	imul   $0xa037,%eax,%eax
  401426:	89 44 24 e8          	mov    %eax,-0x18(%rsp)
  40142a:	8b 44 24 f0          	mov    -0x10(%rsp),%eax
  40142e:	69 c0 4c 58 00 00    	imul   $0x584c,%eax,%eax
  401434:	89 44 24 f0          	mov    %eax,-0x10(%rsp)
  401438:	8b 44 24 f0          	mov    -0x10(%rsp),%eax
  40143c:	69 c0 ce 2a 00 00    	imul   $0x2ace,%eax,%eax
  401442:	89 44 24 f0          	mov    %eax,-0x10(%rsp)
  401446:	8b 44 24 d8          	mov    -0x28(%rsp),%eax
  40144a:	69 c0 a1 5f 00 00    	imul   $0x5fa1,%eax,%eax
  401450:	89 44 24 d8          	mov    %eax,-0x28(%rsp)
  401454:	8b 44 24 e0          	mov    -0x20(%rsp),%eax
  401458:	69 c0 34 5d 00 00    	imul   $0x5d34,%eax,%eax
  40145e:	89 44 24 e0          	mov    %eax,-0x20(%rsp)
  401462:	8b 44 24 dc          	mov    -0x24(%rsp),%eax
  401466:	69 c0 37 5a 00 00    	imul   $0x5a37,%eax,%eax
  40146c:	89 44 24 dc          	mov    %eax,-0x24(%rsp)
  401470:	8b 44 24 e0          	mov    -0x20(%rsp),%eax
  401474:	69 c0 54 76 00 00    	imul   $0x7654,%eax,%eax
  40147a:	89 44 24 e0          	mov    %eax,-0x20(%rsp)
  40147e:	8b 44 24 dc          	mov    -0x24(%rsp),%eax
  401482:	69 c0 f4 8f 00 00    	imul   $0x8ff4,%eax,%eax
  401488:	89 44 24 dc          	mov    %eax,-0x24(%rsp)
  40148c:	8b 44 24 f0          	mov    -0x10(%rsp),%eax
  401490:	69 c0 7f ad 00 00    	imul   $0xad7f,%eax,%eax
  401496:	89 44 24 f0          	mov    %eax,-0x10(%rsp)
  40149a:	8b 44 24 d8          	mov    -0x28(%rsp),%eax
  40149e:	69 c0 07 4d 00 00    	imul   $0x4d07,%eax,%eax
  4014a4:	89 44 24 d8          	mov    %eax,-0x28(%rsp)
  4014a8:	8b 44 24 e0          	mov    -0x20(%rsp),%eax
  4014ac:	69 c0 ec 8b 00 00    	imul   $0x8bec,%eax,%eax
  4014b2:	89 44 24 e0          	mov    %eax,-0x20(%rsp)
  4014b6:	8b 44 24 f4          	mov    -0xc(%rsp),%eax
  4014ba:	69 c0 90 1e 00 00    	imul   $0x1e90,%eax,%eax
  4014c0:	89 44 24 f4          	mov    %eax,-0xc(%rsp)
  4014c4:	8b 44 24 d8          	mov    -0x28(%rsp),%eax
  4014c8:	69 c0 b2 c5 00 00    	imul   $0xc5b2,%eax,%eax
  4014ce:	89 44 24 d8          	mov    %eax,-0x28(%rsp)
  4014d2:	8b 44 24 ec          	mov    -0x14(%rsp),%eax
  4014d6:	69 c0 2f 6e 00 00    	imul   $0x6e2f,%eax,%eax
  4014dc:	89 44 24 ec          	mov    %eax,-0x14(%rsp)
  4014e0:	8b 44 24 e0          	mov    -0x20(%rsp),%eax
  4014e4:	69 c0 64 54 00 00    	imul   $0x5464,%eax,%eax
  4014ea:	89 44 24 e0          	mov    %eax,-0x20(%rsp)
  4014ee:	8b 44 24 dc          	mov    -0x24(%rsp),%eax
  4014f2:	69 c0 dc 9d 00 00    	imul   $0x9ddc,%eax,%eax
  4014f8:	89 44 24 dc          	mov    %eax,-0x24(%rsp)
  4014fc:	8b 44 24 d8          	mov    -0x28(%rsp),%eax
  401500:	69 c0 84 83 00 00    	imul   $0x8384,%eax,%eax
  401506:	89 44 24 d8          	mov    %eax,-0x28(%rsp)
  40150a:	8b 44 24 d0          	mov    -0x30(%rsp),%eax
  40150e:	69 c0 5e 71 00 00    	imul   $0x715e,%eax,%eax
  401514:	89 44 24 d0          	mov    %eax,-0x30(%rsp)
  401518:	8b 44 24 dc          	mov    -0x24(%rsp),%eax
  40151c:	69 c0 ea e4 00 00    	imul   $0xe4ea,%eax,%eax
  401522:	89 44 24 dc          	mov    %eax,-0x24(%rsp)
  401526:	8b 44 24 e8          	mov    -0x18(%rsp),%eax
  40152a:	69 c0 12 ff 00 00    	imul   $0xff12,%eax,%eax
  401530:	89 44 24 e8          	mov    %eax,-0x18(%rsp)
  401534:	8b 44 24 dc          	mov    -0x24(%rsp),%eax
  401538:	69 c0 4a 3d 00 00    	imul   $0x3d4a,%eax,%eax
  40153e:	89 44 24 dc          	mov    %eax,-0x24(%rsp)
  401542:	8b 44 24 d8          	mov    -0x28(%rsp),%eax
  401546:	69 c0 83 57 00 00    	imul   $0x5783,%eax,%eax
  40154c:	89 44 24 d8          	mov    %eax,-0x28(%rsp)
  401550:	8b 44 24 ec          	mov    -0x14(%rsp),%eax
  401554:	69 c0 66 69 00 00    	imul   $0x6966,%eax,%eax
  40155a:	89 44 24 ec          	mov    %eax,-0x14(%rsp)
  40155e:	8b 44 24 e4          	mov    -0x1c(%rsp),%eax
  401562:	69 c0 b7 61 00 00    	imul   $0x61b7,%eax,%eax
  401568:	89 44 24 e4          	mov    %eax,-0x1c(%rsp)
  40156c:	8b 44 24 ec          	mov    -0x14(%rsp),%eax
  401570:	69 c0 0c 6d 00 00    	imul   $0x6d0c,%eax,%eax
  401576:	89 44 24 ec          	mov    %eax,-0x14(%rsp)
  40157a:	8b 44 24 d8          	mov    -0x28(%rsp),%eax
  40157e:	69 c0 79 9f 00 00    	imul   $0x9f79,%eax,%eax
  401584:	89 44 24 d8          	mov    %eax,-0x28(%rsp)
  401588:	8b 44 24 e4          	mov    -0x1c(%rsp),%eax
  40158c:	69 c0 fd b4 00 00    	imul   $0xb4fd,%eax,%eax
  401592:	89 44 24 e4          	mov    %eax,-0x1c(%rsp)
  401596:	8b 44 24 ec          	mov    -0x14(%rsp),%eax
  40159a:	69 c0 3b 6e 00 00    	imul   $0x6e3b,%eax,%eax
  4015a0:	89 44 24 ec          	mov    %eax,-0x14(%rsp)
  4015a4:	8b 44 24 d8          	mov    -0x28(%rsp),%eax
  4015a8:	69 c0 a2 7d 00 00    	imul   $0x7da2,%eax,%eax
  4015ae:	89 44 24 d8          	mov    %eax,-0x28(%rsp)
  4015b2:	8b 44 24 e0          	mov    -0x20(%rsp),%eax
  4015b6:	69 c0 86 13 00 00    	imul   $0x1386,%eax,%eax
  4015bc:	89 44 24 e0          	mov    %eax,-0x20(%rsp)
  4015c0:	8b 44 24 ec          	mov    -0x14(%rsp),%eax
  4015c4:	69 c0 27 62 00 00    	imul   $0x6227,%eax,%eax
  4015ca:	89 44 24 ec          	mov    %eax,-0x14(%rsp)
  4015ce:	8b 44 24 dc          	mov    -0x24(%rsp),%eax
  4015d2:	69 c0 a2 c6 00 00    	imul   $0xc6a2,%eax,%eax
  4015d8:	89 44 24 dc          	mov    %eax,-0x24(%rsp)
  4015dc:	8b 44 24 e8          	mov    -0x18(%rsp),%eax
  4015e0:	69 c0 8b a7 00 00    	imul   $0xa78b,%eax,%eax
  4015e6:	89 44 24 e8          	mov    %eax,-0x18(%rsp)
  4015ea:	8b 44 24 e0          	mov    -0x20(%rsp),%eax
  4015ee:	69 c0 fe 93 00 00    	imul   $0x93fe,%eax,%eax
  4015f4:	89 44 24 e0          	mov    %eax,-0x20(%rsp)
  4015f8:	8b 44 24 d0          	mov    -0x30(%rsp),%eax
  4015fc:	69 c0 ff 08 00 00    	imul   $0x8ff,%eax,%eax
  401602:	89 44 24 d0          	mov    %eax,-0x30(%rsp)
  401606:	8b 44 24 f4          	mov    -0xc(%rsp),%eax
  40160a:	69 c0 94 ce 00 00    	imul   $0xce94,%eax,%eax
  401610:	89 44 24 f4          	mov    %eax,-0xc(%rsp)
  401614:	8b 44 24 e0          	mov    -0x20(%rsp),%eax
  401618:	69 c0 5a ec 00 00    	imul   $0xec5a,%eax,%eax
  40161e:	89 44 24 e0          	mov    %eax,-0x20(%rsp)
  401622:	8b 44 24 e8          	mov    -0x18(%rsp),%eax
  401626:	69 c0 e7 f9 00 00    	imul   $0xf9e7,%eax,%eax
  40162c:	89 44 24 e8          	mov    %eax,-0x18(%rsp)
  401630:	8b 44 24 d4          	mov    -0x2c(%rsp),%eax
  401634:	69 c0 8f 0d 00 00    	imul   $0xd8f,%eax,%eax
  40163a:	89 44 24 d4          	mov    %eax,-0x2c(%rsp)
  40163e:	8b 44 24 d4          	mov    -0x2c(%rsp),%eax
  401642:	69 c0 a5 6c 00 00    	imul   $0x6ca5,%eax,%eax
  401648:	89 44 24 d4          	mov    %eax,-0x2c(%rsp)
  40164c:	8b 44 24 d0          	mov    -0x30(%rsp),%eax
  401650:	69 c0 5e 0a 00 00    	imul   $0xa5e,%eax,%eax
  401656:	89 44 24 d0          	mov    %eax,-0x30(%rsp)
  40165a:	8b 44 24 dc          	mov    -0x24(%rsp),%eax
  40165e:	69 c0 93 73 00 00    	imul   $0x7393,%eax,%eax
  401664:	89 44 24 dc          	mov    %eax,-0x24(%rsp)
  401668:	8b 44 24 e8          	mov    -0x18(%rsp),%eax
  40166c:	69 c0 27 ca 00 00    	imul   $0xca27,%eax,%eax
  401672:	89 44 24 e8          	mov    %eax,-0x18(%rsp)
  401676:	8b 44 24 f4          	mov    -0xc(%rsp),%eax
  40167a:	69 c0 0b 3a 00 00    	imul   $0x3a0b,%eax,%eax
  401680:	89 44 24 f4          	mov    %eax,-0xc(%rsp)
  401684:	8b 44 24 ec          	mov    -0x14(%rsp),%eax
  401688:	69 c0 39 be 00 00    	imul   $0xbe39,%eax,%eax
  40168e:	89 44 24 ec          	mov    %eax,-0x14(%rsp)
  401692:	8b 44 24 d0          	mov    -0x30(%rsp),%eax
  401696:	69 c0 d0 19 00 00    	imul   $0x19d0,%eax,%eax
  40169c:	89 44 24 d0          	mov    %eax,-0x30(%rsp)
  4016a0:	8b 44 24 e8          	mov    -0x18(%rsp),%eax
  4016a4:	69 c0 f4 fe 00 00    	imul   $0xfef4,%eax,%eax
  4016aa:	89 44 24 e8          	mov    %eax,-0x18(%rsp)
  4016ae:	8b 44 24 f0          	mov    -0x10(%rsp),%eax
  4016b2:	69 c0 0b 06 00 00    	imul   $0x60b,%eax,%eax
  4016b8:	89 44 24 f0          	mov    %eax,-0x10(%rsp)
  4016bc:	8b 44 24 d4          	mov    -0x2c(%rsp),%eax
  4016c0:	69 c0 72 18 00 00    	imul   $0x1872,%eax,%eax
  4016c6:	89 44 24 d4          	mov    %eax,-0x2c(%rsp)
  4016ca:	8b 44 24 dc          	mov    -0x24(%rsp),%eax
  4016ce:	69 c0 f6 32 00 00    	imul   $0x32f6,%eax,%eax
  4016d4:	89 44 24 dc          	mov    %eax,-0x24(%rsp)
  4016d8:	8b 44 24 e0          	mov    -0x20(%rsp),%eax
  4016dc:	69 c0 1a 2d 00 00    	imul   $0x2d1a,%eax,%eax
  4016e2:	89 44 24 e0          	mov    %eax,-0x20(%rsp)
  4016e6:	8b 44 24 f0          	mov    -0x10(%rsp),%eax
  4016ea:	69 c0 bb 67 00 00    	imul   $0x67bb,%eax,%eax
  4016f0:	89 44 24 f0          	mov    %eax,-0x10(%rsp)
  4016f4:	8b 44 24 f0          	mov    -0x10(%rsp),%eax
  4016f8:	69 c0 a2 27 00 00    	imul   $0x27a2,%eax,%eax
  4016fe:	89 44 24 f0          	mov    %eax,-0x10(%rsp)
  401702:	8b 44 24 d8          	mov    -0x28(%rsp),%eax
  401706:	69 c0 34 6f 00 00    	imul   $0x6f34,%eax,%eax
  40170c:	89 44 24 d8          	mov    %eax,-0x28(%rsp)
  401710:	8b 44 24 f4          	mov    -0xc(%rsp),%eax
  401714:	69 c0 41 bd 00 00    	imul   $0xbd41,%eax,%eax
  40171a:	89 44 24 f4          	mov    %eax,-0xc(%rsp)
  40171e:	8b 44 24 f4          	mov    -0xc(%rsp),%eax
  401722:	69 c0 cd af 00 00    	imul   $0xafcd,%eax,%eax
  401728:	89 44 24 f4          	mov    %eax,-0xc(%rsp)
  40172c:	8b 44 24 ec          	mov    -0x14(%rsp),%eax
  401730:	69 c0 f7 e7 00 00    	imul   $0xe7f7,%eax,%eax
  401736:	89 44 24 ec          	mov    %eax,-0x14(%rsp)
  40173a:	8b 44 24 d0          	mov    -0x30(%rsp),%eax
  40173e:	69 c0 fb 86 00 00    	imul   $0x86fb,%eax,%eax
  401744:	89 44 24 d0          	mov    %eax,-0x30(%rsp)
  401748:	8b 44 24 f0          	mov    -0x10(%rsp),%eax
  40174c:	69 c0 2f 05 00 00    	imul   $0x52f,%eax,%eax
  401752:	89 44 24 f0          	mov    %eax,-0x10(%rsp)
  401756:	8b 44 24 e8          	mov    -0x18(%rsp),%eax
  40175a:	69 c0 e8 f9 00 00    	imul   $0xf9e8,%eax,%eax
  401760:	89 44 24 e8          	mov    %eax,-0x18(%rsp)
  401764:	8b 44 24 e8          	mov    -0x18(%rsp),%eax
  401768:	69 c0 97 0e 00 00    	imul   $0xe97,%eax,%eax
  40176e:	89 44 24 e8          	mov    %eax,-0x18(%rsp)
  401772:	8b 44 24 e0          	mov    -0x20(%rsp),%eax
  401776:	69 c0 c8 e3 00 00    	imul   $0xe3c8,%eax,%eax
  40177c:	89 44 24 e0          	mov    %eax,-0x20(%rsp)
  401780:	8b 44 24 e0          	mov    -0x20(%rsp),%eax
  401784:	69 c0 2a f4 00 00    	imul   $0xf42a,%eax,%eax
  40178a:	89 44 24 e0          	mov    %eax,-0x20(%rsp)
  40178e:	8b 44 24 f0          	mov    -0x10(%rsp),%eax
  401792:	69 c0 0c b4 00 00    	imul   $0xb40c,%eax,%eax
  401798:	89 44 24 f0          	mov    %eax,-0x10(%rsp)
  40179c:	8b 44 24 e8          	mov    -0x18(%rsp),%eax
  4017a0:	69 c0 dd 83 00 00    	imul   $0x83dd,%eax,%eax
  4017a6:	89 44 24 e8          	mov    %eax,-0x18(%rsp)
  4017aa:	8b 44 24 ec          	mov    -0x14(%rsp),%eax
  4017ae:	69 c0 0d 2e 00 00    	imul   $0x2e0d,%eax,%eax
  4017b4:	89 44 24 ec          	mov    %eax,-0x14(%rsp)
  4017b8:	8b 44 24 e8          	mov    -0x18(%rsp),%eax
  4017bc:	69 c0 8c e8 00 00    	imul   $0xe88c,%eax,%eax
  4017c2:	89 44 24 e8          	mov    %eax,-0x18(%rsp)
  4017c6:	8b 44 24 dc          	mov    -0x24(%rsp),%eax
  4017ca:	69 c0 6b ca 00 00    	imul   $0xca6b,%eax,%eax
  4017d0:	89 44 24 dc          	mov    %eax,-0x24(%rsp)
  4017d4:	8b 44 24 dc          	mov    -0x24(%rsp),%eax
  4017d8:	69 c0 6b f7 00 00    	imul   $0xf76b,%eax,%eax
  4017de:	89 44 24 dc          	mov    %eax,-0x24(%rsp)
  4017e2:	8b 44 24 e8          	mov    -0x18(%rsp),%eax
  4017e6:	69 c0 61 45 00 00    	imul   $0x4561,%eax,%eax
  4017ec:	89 44 24 e8          	mov    %eax,-0x18(%rsp)
  4017f0:	ba 00 00 00 00       	mov    $0x0,%edx
  4017f5:	b8 00 00 00 00       	mov    $0x0,%eax
  4017fa:	83 fa 09             	cmp    $0x9,%edx
  4017fd:	77 0d                	ja     40180c <scramble+0x525>
  4017ff:	89 d1                	mov    %edx,%ecx
  401801:	8b 4c 8c d0          	mov    -0x30(%rsp,%rcx,4),%ecx
  401805:	01 c8                	add    %ecx,%eax
  401807:	83 c2 01             	add    $0x1,%edx
  40180a:	eb ee                	jmp    4017fa <scramble+0x513>
  40180c:	c3                   	retq   

000000000040180d <getbuf>:
  40180d:	48 83 ec 18          	sub    $0x18,%rsp
  401811:	48 89 e7             	mov    %rsp,%rdi
  401814:	e8 4c 03 00 00       	callq  401b65 <Gets>
  401819:	b8 01 00 00 00       	mov    $0x1,%eax
  40181e:	48 83 c4 18          	add    $0x18,%rsp
  401822:	c3                   	retq   

0000000000401823 <touch1>:
  401823:	48 83 ec 08          	sub    $0x8,%rsp
  401827:	c7 05 cb 3c 20 00 01 	movl   $0x1,0x203ccb(%rip)        # 6054fc <vlevel>
  40182e:	00 00 00 
  401831:	bf ea 30 40 00       	mov    $0x4030ea,%edi
  401836:	e8 95 f4 ff ff       	callq  400cd0 <puts@plt>
  40183b:	bf 01 00 00 00       	mov    $0x1,%edi
  401840:	e8 13 05 00 00       	callq  401d58 <validate>
  401845:	bf 00 00 00 00       	mov    $0x0,%edi
  40184a:	e8 f1 f5 ff ff       	callq  400e40 <exit@plt>

000000000040184f <touch2>:
  40184f:	48 83 ec 08          	sub    $0x8,%rsp
  401853:	89 fe                	mov    %edi,%esi
  401855:	c7 05 9d 3c 20 00 02 	movl   $0x2,0x203c9d(%rip)        # 6054fc <vlevel>
  40185c:	00 00 00 
  40185f:	39 3d 9f 3c 20 00    	cmp    %edi,0x203c9f(%rip)        # 605504 <cookie>
  401865:	74 23                	je     40188a <touch2+0x3b>
  401867:	bf 38 31 40 00       	mov    $0x403138,%edi
  40186c:	b8 00 00 00 00       	mov    $0x0,%eax
  401871:	e8 8a f4 ff ff       	callq  400d00 <printf@plt>
  401876:	bf 02 00 00 00       	mov    $0x2,%edi
  40187b:	e8 8a 05 00 00       	callq  401e0a <fail>
  401880:	bf 00 00 00 00       	mov    $0x0,%edi
  401885:	e8 b6 f5 ff ff       	callq  400e40 <exit@plt>
  40188a:	bf 10 31 40 00       	mov    $0x403110,%edi
  40188f:	b8 00 00 00 00       	mov    $0x0,%eax
  401894:	e8 67 f4 ff ff       	callq  400d00 <printf@plt>
  401899:	bf 02 00 00 00       	mov    $0x2,%edi
  40189e:	e8 b5 04 00 00       	callq  401d58 <validate>
  4018a3:	eb db                	jmp    401880 <touch2+0x31>

00000000004018a5 <hexmatch>:
  4018a5:	41 54                	push   %r12
  4018a7:	55                   	push   %rbp
  4018a8:	53                   	push   %rbx
  4018a9:	48 83 ec 70          	sub    $0x70,%rsp
  4018ad:	89 fd                	mov    %edi,%ebp
  4018af:	48 89 f3             	mov    %rsi,%rbx
  4018b2:	e8 f9 f4 ff ff       	callq  400db0 <random@plt>
  4018b7:	48 89 c1             	mov    %rax,%rcx
  4018ba:	48 ba 0b d7 a3 70 3d 	movabs $0xa3d70a3d70a3d70b,%rdx
  4018c1:	0a d7 a3 
  4018c4:	48 f7 ea             	imul   %rdx
  4018c7:	48 01 ca             	add    %rcx,%rdx
  4018ca:	48 c1 fa 06          	sar    $0x6,%rdx
  4018ce:	48 89 c8             	mov    %rcx,%rax
  4018d1:	48 c1 f8 3f          	sar    $0x3f,%rax
  4018d5:	48 29 c2             	sub    %rax,%rdx
  4018d8:	48 8d 04 92          	lea    (%rdx,%rdx,4),%rax
  4018dc:	48 8d 14 80          	lea    (%rax,%rax,4),%rdx
  4018e0:	48 8d 04 95 00 00 00 	lea    0x0(,%rdx,4),%rax
  4018e7:	00 
  4018e8:	48 29 c1             	sub    %rax,%rcx
  4018eb:	4c 8d 24 0c          	lea    (%rsp,%rcx,1),%r12
  4018ef:	89 ea                	mov    %ebp,%edx
  4018f1:	be 07 31 40 00       	mov    $0x403107,%esi
  4018f6:	4c 89 e7             	mov    %r12,%rdi
  4018f9:	b8 00 00 00 00       	mov    $0x0,%eax
  4018fe:	e8 2d f5 ff ff       	callq  400e30 <sprintf@plt>
  401903:	ba 09 00 00 00       	mov    $0x9,%edx
  401908:	4c 89 e6             	mov    %r12,%rsi
  40190b:	48 89 df             	mov    %rbx,%rdi
  40190e:	e8 9d f3 ff ff       	callq  400cb0 <strncmp@plt>
  401913:	85 c0                	test   %eax,%eax
  401915:	0f 94 c0             	sete   %al
  401918:	0f b6 c0             	movzbl %al,%eax
  40191b:	48 83 c4 70          	add    $0x70,%rsp
  40191f:	5b                   	pop    %rbx
  401920:	5d                   	pop    %rbp
  401921:	41 5c                	pop    %r12
  401923:	c3                   	retq   

0000000000401924 <touch3>:
  401924:	53                   	push   %rbx
  401925:	48 89 fb             	mov    %rdi,%rbx
  401928:	c7 05 ca 3b 20 00 03 	movl   $0x3,0x203bca(%rip)        # 6054fc <vlevel>
  40192f:	00 00 00 
  401932:	48 89 fe             	mov    %rdi,%rsi
  401935:	8b 3d c9 3b 20 00    	mov    0x203bc9(%rip),%edi        # 605504 <cookie>
  40193b:	e8 65 ff ff ff       	callq  4018a5 <hexmatch>
  401940:	85 c0                	test   %eax,%eax
  401942:	74 26                	je     40196a <touch3+0x46>
  401944:	48 89 de             	mov    %rbx,%rsi
  401947:	bf 60 31 40 00       	mov    $0x403160,%edi
  40194c:	b8 00 00 00 00       	mov    $0x0,%eax
  401951:	e8 aa f3 ff ff       	callq  400d00 <printf@plt>
  401956:	bf 03 00 00 00       	mov    $0x3,%edi
  40195b:	e8 f8 03 00 00       	callq  401d58 <validate>
  401960:	bf 00 00 00 00       	mov    $0x0,%edi
  401965:	e8 d6 f4 ff ff       	callq  400e40 <exit@plt>
  40196a:	48 89 de             	mov    %rbx,%rsi
  40196d:	bf 88 31 40 00       	mov    $0x403188,%edi
  401972:	b8 00 00 00 00       	mov    $0x0,%eax
  401977:	e8 84 f3 ff ff       	callq  400d00 <printf@plt>
  40197c:	bf 03 00 00 00       	mov    $0x3,%edi
  401981:	e8 84 04 00 00       	callq  401e0a <fail>
  401986:	eb d8                	jmp    401960 <touch3+0x3c>

0000000000401988 <test>:
  401988:	48 83 ec 08          	sub    $0x8,%rsp
  40198c:	b8 00 00 00 00       	mov    $0x0,%eax
  401991:	e8 77 fe ff ff       	callq  40180d <getbuf>
  401996:	89 c6                	mov    %eax,%esi
  401998:	bf b0 31 40 00       	mov    $0x4031b0,%edi
  40199d:	b8 00 00 00 00       	mov    $0x0,%eax
  4019a2:	e8 59 f3 ff ff       	callq  400d00 <printf@plt>
  4019a7:	48 83 c4 08          	add    $0x8,%rsp
  4019ab:	c3                   	retq   

00000000004019ac <start_farm>:
  4019ac:	b8 01 00 00 00       	mov    $0x1,%eax
  4019b1:	c3                   	retq   

00000000004019b2 <getval_217>:
  4019b2:	b8 65 48 c9 c7       	mov    $0xc7c94865,%eax
  4019b7:	c3                   	retq   

00000000004019b8 <setval_144>:
  4019b8:	c7 07 58 c3 3b 5d    	movl   $0x5d3bc358,(%rdi)
  4019be:	c3                   	retq   

00000000004019bf <setval_123>:
  4019bf:	c7 07 48 89 c7 c3    	movl   $0xc3c78948,(%rdi)
  4019c5:	c3                   	retq   

00000000004019c6 <addval_493>:
  4019c6:	8d 87 7c e0 73 58    	lea    0x5873e07c(%rdi),%eax
  4019cc:	c3                   	retq   

00000000004019cd <addval_177>:
  4019cd:	8d 87 48 89 c7 c3    	lea    -0x3c3876b8(%rdi),%eax
  4019d3:	c3                   	retq   

00000000004019d4 <addval_320>:
  4019d4:	8d 87 06 58 90 c2    	lea    -0x3d6fa7fa(%rdi),%eax
  4019da:	c3                   	retq   

00000000004019db <getval_157>:
  4019db:	b8 7e 5d 58 92       	mov    $0x92585d7e,%eax
  4019e0:	c3                   	retq   

00000000004019e1 <setval_341>:
  4019e1:	c7 07 48 89 c7 c1    	movl   $0xc1c78948,(%rdi)
  4019e7:	c3                   	retq   

00000000004019e8 <mid_farm>:
  4019e8:	b8 01 00 00 00       	mov    $0x1,%eax
  4019ed:	c3                   	retq   

00000000004019ee <add_xy>:
  4019ee:	48 8d 04 37          	lea    (%rdi,%rsi,1),%rax
  4019f2:	c3                   	retq   

00000000004019f3 <getval_183>:
  4019f3:	b8 8b ca 90 90       	mov    $0x9090ca8b,%eax
  4019f8:	c3                   	retq   

00000000004019f9 <addval_260>:
  4019f9:	8d 87 89 ca 08 c0    	lea    -0x3ff73577(%rdi),%eax
  4019ff:	c3                   	retq   

0000000000401a00 <addval_407>:
  401a00:	8d 87 81 c1 90 90    	lea    -0x6f6f3e7f(%rdi),%eax
  401a06:	c3                   	retq   

0000000000401a07 <getval_441>:
  401a07:	b8 10 81 c1 c3       	mov    $0xc3c18110,%eax
  401a0c:	c3                   	retq   

0000000000401a0d <addval_362>:
  401a0d:	8d 87 89 d6 84 c0    	lea    -0x3f7b2977(%rdi),%eax
  401a13:	c3                   	retq   

0000000000401a14 <setval_430>:
  401a14:	c7 07 48 89 e0 c3    	movl   $0xc3e08948,(%rdi)
  401a1a:	c3                   	retq   

0000000000401a1b <addval_403>:
  401a1b:	8d 87 48 8b e0 c3    	lea    -0x3c1f74b8(%rdi),%eax
  401a21:	c3                   	retq   

0000000000401a22 <getval_357>:
  401a22:	b8 89 c1 48 c9       	mov    $0xc948c189,%eax
  401a27:	c3                   	retq   

0000000000401a28 <setval_435>:
  401a28:	c7 07 89 c1 08 c0    	movl   $0xc008c189,(%rdi)
  401a2e:	c3                   	retq   

0000000000401a2f <getval_149>:
  401a2f:	b8 89 d6 60 c9       	mov    $0xc960d689,%eax
  401a34:	c3                   	retq   

0000000000401a35 <getval_120>:
  401a35:	b8 89 ca 78 db       	mov    $0xdb78ca89,%eax
  401a3a:	c3                   	retq   

0000000000401a3b <setval_205>:
  401a3b:	c7 07 8b ca c3 ce    	movl   $0xcec3ca8b,(%rdi)
  401a41:	c3                   	retq   

0000000000401a42 <addval_155>:
  401a42:	8d 87 89 ca 91 c3    	lea    -0x3c6e3577(%rdi),%eax
  401a48:	c3                   	retq   

0000000000401a49 <setval_108>:
  401a49:	c7 07 89 d6 20 c0    	movl   $0xc020d689,(%rdi)
  401a4f:	c3                   	retq   

0000000000401a50 <setval_371>:
  401a50:	c7 07 89 d6 94 90    	movl   $0x9094d689,(%rdi)
  401a56:	c3                   	retq   

0000000000401a57 <getval_442>:
  401a57:	b8 48 8d e0 90       	mov    $0x90e08d48,%eax
  401a5c:	c3                   	retq   

0000000000401a5d <setval_147>:
  401a5d:	c7 07 8a 4a 89 e0    	movl   $0xe0894a8a,(%rdi)
  401a63:	c3                   	retq   

0000000000401a64 <setval_156>:
  401a64:	c7 07 99 c1 08 d2    	movl   $0xd208c199,(%rdi)
  401a6a:	c3                   	retq   

0000000000401a6b <setval_472>:
  401a6b:	c7 07 89 d6 92 c3    	movl   $0xc392d689,(%rdi)
  401a71:	c3                   	retq   

0000000000401a72 <getval_168>:
  401a72:	b8 81 c1 38 d2       	mov    $0xd238c181,%eax
  401a77:	c3                   	retq   

0000000000401a78 <addval_378>:
  401a78:	8d 87 08 89 e0 c3    	lea    -0x3c1f76f8(%rdi),%eax
  401a7e:	c3                   	retq   

0000000000401a7f <addval_384>:
  401a7f:	8d 87 48 89 e0 c3    	lea    -0x3c1f76b8(%rdi),%eax
  401a85:	c3                   	retq   

0000000000401a86 <getval_106>:
  401a86:	b8 cf 89 d6 92       	mov    $0x92d689cf,%eax
  401a8b:	c3                   	retq   

0000000000401a8c <getval_405>:
  401a8c:	b8 89 c1 18 db       	mov    $0xdb18c189,%eax
  401a91:	c3                   	retq   

0000000000401a92 <addval_224>:
  401a92:	8d 87 89 ca 00 d2    	lea    -0x2dff3577(%rdi),%eax
  401a98:	c3                   	retq   

0000000000401a99 <addval_487>:
  401a99:	8d 87 48 a9 e0 c3    	lea    -0x3c1f56b8(%rdi),%eax
  401a9f:	c3                   	retq   

0000000000401aa0 <getval_319>:
  401aa0:	b8 09 d6 38 d2       	mov    $0xd238d609,%eax
  401aa5:	c3                   	retq   

0000000000401aa6 <getval_374>:
  401aa6:	b8 8d d6 84 c0       	mov    $0xc084d68d,%eax
  401aab:	c3                   	retq   

0000000000401aac <getval_163>:
  401aac:	b8 89 c1 c3 7f       	mov    $0x7fc3c189,%eax
  401ab1:	c3                   	retq   

0000000000401ab2 <setval_443>:
  401ab2:	c7 07 40 89 e0 c3    	movl   $0xc3e08940,(%rdi)
  401ab8:	c3                   	retq   

0000000000401ab9 <getval_480>:
  401ab9:	b8 8d ca 08 db       	mov    $0xdb08ca8d,%eax
  401abe:	c3                   	retq   

0000000000401abf <setval_450>:
  401abf:	c7 07 89 ca 08 d2    	movl   $0xd208ca89,(%rdi)
  401ac5:	c3                   	retq   

0000000000401ac6 <end_farm>:
  401ac6:	b8 01 00 00 00       	mov    $0x1,%eax
  401acb:	c3                   	retq   

0000000000401acc <save_char>:
  401acc:	8b 05 52 46 20 00    	mov    0x204652(%rip),%eax        # 606124 <gets_cnt>
  401ad2:	3d ff 03 00 00       	cmp    $0x3ff,%eax
  401ad7:	7f 49                	jg     401b22 <save_char+0x56>
  401ad9:	89 f9                	mov    %edi,%ecx
  401adb:	c0 e9 04             	shr    $0x4,%cl
  401ade:	8d 14 40             	lea    (%rax,%rax,2),%edx
  401ae1:	83 e1 0f             	and    $0xf,%ecx
  401ae4:	0f b6 b1 d0 34 40 00 	movzbl 0x4034d0(%rcx),%esi
  401aeb:	48 63 ca             	movslq %edx,%rcx
  401aee:	40 88 b1 20 55 60 00 	mov    %sil,0x605520(%rcx)
  401af5:	8d 4a 01             	lea    0x1(%rdx),%ecx
  401af8:	83 e7 0f             	and    $0xf,%edi
  401afb:	0f b6 b7 d0 34 40 00 	movzbl 0x4034d0(%rdi),%esi
  401b02:	48 63 c9             	movslq %ecx,%rcx
  401b05:	40 88 b1 20 55 60 00 	mov    %sil,0x605520(%rcx)
  401b0c:	83 c2 02             	add    $0x2,%edx
  401b0f:	48 63 d2             	movslq %edx,%rdx
  401b12:	c6 82 20 55 60 00 20 	movb   $0x20,0x605520(%rdx)
  401b19:	83 c0 01             	add    $0x1,%eax
  401b1c:	89 05 02 46 20 00    	mov    %eax,0x204602(%rip)        # 606124 <gets_cnt>
  401b22:	c3                   	retq   

0000000000401b23 <save_term>:
  401b23:	8b 05 fb 45 20 00    	mov    0x2045fb(%rip),%eax        # 606124 <gets_cnt>
  401b29:	8d 04 40             	lea    (%rax,%rax,2),%eax
  401b2c:	48 98                	cltq   
  401b2e:	c6 80 20 55 60 00 00 	movb   $0x0,0x605520(%rax)
  401b35:	c3                   	retq   

0000000000401b36 <check_fail>:
  401b36:	48 83 ec 08          	sub    $0x8,%rsp
  401b3a:	0f be 35 e7 45 20 00 	movsbl 0x2045e7(%rip),%esi        # 606128 <target_prefix>
  401b41:	b9 20 55 60 00       	mov    $0x605520,%ecx
  401b46:	8b 15 ac 39 20 00    	mov    0x2039ac(%rip),%edx        # 6054f8 <check_level>
  401b4c:	bf d3 31 40 00       	mov    $0x4031d3,%edi
  401b51:	b8 00 00 00 00       	mov    $0x0,%eax
  401b56:	e8 a5 f1 ff ff       	callq  400d00 <printf@plt>
  401b5b:	bf 01 00 00 00       	mov    $0x1,%edi
  401b60:	e8 db f2 ff ff       	callq  400e40 <exit@plt>

0000000000401b65 <Gets>:
  401b65:	41 54                	push   %r12
  401b67:	55                   	push   %rbp
  401b68:	53                   	push   %rbx
  401b69:	49 89 fc             	mov    %rdi,%r12
  401b6c:	c7 05 ae 45 20 00 00 	movl   $0x0,0x2045ae(%rip)        # 606124 <gets_cnt>
  401b73:	00 00 00 
  401b76:	48 89 fb             	mov    %rdi,%rbx
  401b79:	48 8b 3d 70 39 20 00 	mov    0x203970(%rip),%rdi        # 6054f0 <infile>
  401b80:	e8 db f2 ff ff       	callq  400e60 <getc@plt>
  401b85:	83 f8 ff             	cmp    $0xffffffff,%eax
  401b88:	74 18                	je     401ba2 <Gets+0x3d>
  401b8a:	83 f8 0a             	cmp    $0xa,%eax
  401b8d:	74 13                	je     401ba2 <Gets+0x3d>
  401b8f:	48 8d 6b 01          	lea    0x1(%rbx),%rbp
  401b93:	88 03                	mov    %al,(%rbx)
  401b95:	0f b6 f8             	movzbl %al,%edi
  401b98:	e8 2f ff ff ff       	callq  401acc <save_char>
  401b9d:	48 89 eb             	mov    %rbp,%rbx
  401ba0:	eb d7                	jmp    401b79 <Gets+0x14>
  401ba2:	c6 03 00             	movb   $0x0,(%rbx)
  401ba5:	b8 00 00 00 00       	mov    $0x0,%eax
  401baa:	e8 74 ff ff ff       	callq  401b23 <save_term>
  401baf:	4c 89 e0             	mov    %r12,%rax
  401bb2:	5b                   	pop    %rbx
  401bb3:	5d                   	pop    %rbp
  401bb4:	41 5c                	pop    %r12
  401bb6:	c3                   	retq   

0000000000401bb7 <notify_server>:
  401bb7:	83 3d 4a 39 20 00 00 	cmpl   $0x0,0x20394a(%rip)        # 605508 <is_checker>
  401bbe:	0f 85 93 01 00 00    	jne    401d57 <notify_server+0x1a0>
  401bc4:	55                   	push   %rbp
  401bc5:	53                   	push   %rbx
  401bc6:	48 81 ec 08 40 00 00 	sub    $0x4008,%rsp
  401bcd:	89 fb                	mov    %edi,%ebx
  401bcf:	81 3d 4b 45 20 00 9c 	cmpl   $0x1f9c,0x20454b(%rip)        # 606124 <gets_cnt>
  401bd6:	1f 00 00 
  401bd9:	0f 8f ad 00 00 00    	jg     401c8c <notify_server+0xd5>
  401bdf:	44 0f be 0d 41 45 20 	movsbl 0x204541(%rip),%r9d        # 606128 <target_prefix>
  401be6:	00 
  401be7:	83 3d 9a 38 20 00 00 	cmpl   $0x0,0x20389a(%rip)        # 605488 <notify>
  401bee:	0f 84 b1 00 00 00    	je     401ca5 <notify_server+0xee>
  401bf4:	44 8b 05 05 39 20 00 	mov    0x203905(%rip),%r8d        # 605500 <authkey>
  401bfb:	85 db                	test   %ebx,%ebx
  401bfd:	0f 84 ad 00 00 00    	je     401cb0 <notify_server+0xf9>
  401c03:	bd ee 31 40 00       	mov    $0x4031ee,%ebp
  401c08:	68 20 55 60 00       	pushq  $0x605520
  401c0d:	56                   	push   %rsi
  401c0e:	48 89 e9             	mov    %rbp,%rcx
  401c11:	8b 15 31 35 20 00    	mov    0x203531(%rip),%edx        # 605148 <target_id>
  401c17:	be f3 31 40 00       	mov    $0x4031f3,%esi
  401c1c:	48 8d bc 24 10 20 00 	lea    0x2010(%rsp),%rdi
  401c23:	00 
  401c24:	b8 00 00 00 00       	mov    $0x0,%eax
  401c29:	e8 02 f2 ff ff       	callq  400e30 <sprintf@plt>
  401c2e:	48 83 c4 10          	add    $0x10,%rsp
  401c32:	83 3d 4f 38 20 00 00 	cmpl   $0x0,0x20384f(%rip)        # 605488 <notify>
  401c39:	0f 84 ab 00 00 00    	je     401cea <notify_server+0x133>
  401c3f:	85 db                	test   %ebx,%ebx
  401c41:	0f 84 8f 00 00 00    	je     401cd6 <notify_server+0x11f>
  401c47:	49 89 e1             	mov    %rsp,%r9
  401c4a:	41 b8 00 00 00 00    	mov    $0x0,%r8d
  401c50:	48 8d 8c 24 00 20 00 	lea    0x2000(%rsp),%rcx
  401c57:	00 
  401c58:	48 8b 15 f1 34 20 00 	mov    0x2034f1(%rip),%rdx        # 605150 <lab>
  401c5f:	48 8b 35 f2 34 20 00 	mov    0x2034f2(%rip),%rsi        # 605158 <course>
  401c66:	48 8b 3d d3 34 20 00 	mov    0x2034d3(%rip),%rdi        # 605140 <user_id>
  401c6d:	e8 e5 0f 00 00       	callq  402c57 <driver_post>
  401c72:	85 c0                	test   %eax,%eax
  401c74:	78 44                	js     401cba <notify_server+0x103>
  401c76:	bf 38 33 40 00       	mov    $0x403338,%edi
  401c7b:	e8 50 f0 ff ff       	callq  400cd0 <puts@plt>
  401c80:	bf 1b 32 40 00       	mov    $0x40321b,%edi
  401c85:	e8 46 f0 ff ff       	callq  400cd0 <puts@plt>
  401c8a:	eb 54                	jmp    401ce0 <notify_server+0x129>
  401c8c:	bf 08 33 40 00       	mov    $0x403308,%edi
  401c91:	b8 00 00 00 00       	mov    $0x0,%eax
  401c96:	e8 65 f0 ff ff       	callq  400d00 <printf@plt>
  401c9b:	bf 01 00 00 00       	mov    $0x1,%edi
  401ca0:	e8 9b f1 ff ff       	callq  400e40 <exit@plt>
  401ca5:	41 b8 ff ff ff ff    	mov    $0xffffffff,%r8d
  401cab:	e9 4b ff ff ff       	jmpq   401bfb <notify_server+0x44>
  401cb0:	bd e9 31 40 00       	mov    $0x4031e9,%ebp
  401cb5:	e9 4e ff ff ff       	jmpq   401c08 <notify_server+0x51>
  401cba:	48 89 e6             	mov    %rsp,%rsi
  401cbd:	bf 0f 32 40 00       	mov    $0x40320f,%edi
  401cc2:	b8 00 00 00 00       	mov    $0x0,%eax
  401cc7:	e8 34 f0 ff ff       	callq  400d00 <printf@plt>
  401ccc:	bf 01 00 00 00       	mov    $0x1,%edi
  401cd1:	e8 6a f1 ff ff       	callq  400e40 <exit@plt>
  401cd6:	bf 25 32 40 00       	mov    $0x403225,%edi
  401cdb:	e8 f0 ef ff ff       	callq  400cd0 <puts@plt>
  401ce0:	48 81 c4 08 40 00 00 	add    $0x4008,%rsp
  401ce7:	5b                   	pop    %rbx
  401ce8:	5d                   	pop    %rbp
  401ce9:	c3                   	retq   
  401cea:	48 89 ee             	mov    %rbp,%rsi
  401ced:	bf 70 33 40 00       	mov    $0x403370,%edi
  401cf2:	b8 00 00 00 00       	mov    $0x0,%eax
  401cf7:	e8 04 f0 ff ff       	callq  400d00 <printf@plt>
  401cfc:	48 8b 35 3d 34 20 00 	mov    0x20343d(%rip),%rsi        # 605140 <user_id>
  401d03:	bf 2c 32 40 00       	mov    $0x40322c,%edi
  401d08:	b8 00 00 00 00       	mov    $0x0,%eax
  401d0d:	e8 ee ef ff ff       	callq  400d00 <printf@plt>
  401d12:	48 8b 35 3f 34 20 00 	mov    0x20343f(%rip),%rsi        # 605158 <course>
  401d19:	bf 39 32 40 00       	mov    $0x403239,%edi
  401d1e:	b8 00 00 00 00       	mov    $0x0,%eax
  401d23:	e8 d8 ef ff ff       	callq  400d00 <printf@plt>
  401d28:	48 8b 35 21 34 20 00 	mov    0x203421(%rip),%rsi        # 605150 <lab>
  401d2f:	bf 45 32 40 00       	mov    $0x403245,%edi
  401d34:	b8 00 00 00 00       	mov    $0x0,%eax
  401d39:	e8 c2 ef ff ff       	callq  400d00 <printf@plt>
  401d3e:	48 8d b4 24 00 20 00 	lea    0x2000(%rsp),%rsi
  401d45:	00 
  401d46:	bf 4e 32 40 00       	mov    $0x40324e,%edi
  401d4b:	b8 00 00 00 00       	mov    $0x0,%eax
  401d50:	e8 ab ef ff ff       	callq  400d00 <printf@plt>
  401d55:	eb 89                	jmp    401ce0 <notify_server+0x129>
  401d57:	c3                   	retq   

0000000000401d58 <validate>:
  401d58:	53                   	push   %rbx
  401d59:	89 fb                	mov    %edi,%ebx
  401d5b:	83 3d a6 37 20 00 00 	cmpl   $0x0,0x2037a6(%rip)        # 605508 <is_checker>
  401d62:	74 60                	je     401dc4 <validate+0x6c>
  401d64:	39 3d 92 37 20 00    	cmp    %edi,0x203792(%rip)        # 6054fc <vlevel>
  401d6a:	75 29                	jne    401d95 <validate+0x3d>
  401d6c:	8b 35 86 37 20 00    	mov    0x203786(%rip),%esi        # 6054f8 <check_level>
  401d72:	39 fe                	cmp    %edi,%esi
  401d74:	75 33                	jne    401da9 <validate+0x51>
  401d76:	0f be 35 ab 43 20 00 	movsbl 0x2043ab(%rip),%esi        # 606128 <target_prefix>
  401d7d:	b9 20 55 60 00       	mov    $0x605520,%ecx
  401d82:	89 fa                	mov    %edi,%edx
  401d84:	bf 78 32 40 00       	mov    $0x403278,%edi
  401d89:	b8 00 00 00 00       	mov    $0x0,%eax
  401d8e:	e8 6d ef ff ff       	callq  400d00 <printf@plt>
  401d93:	5b                   	pop    %rbx
  401d94:	c3                   	retq   
  401d95:	bf 5a 32 40 00       	mov    $0x40325a,%edi
  401d9a:	e8 31 ef ff ff       	callq  400cd0 <puts@plt>
  401d9f:	b8 00 00 00 00       	mov    $0x0,%eax
  401da4:	e8 8d fd ff ff       	callq  401b36 <check_fail>
  401da9:	89 fa                	mov    %edi,%edx
  401dab:	bf 98 33 40 00       	mov    $0x403398,%edi
  401db0:	b8 00 00 00 00       	mov    $0x0,%eax
  401db5:	e8 46 ef ff ff       	callq  400d00 <printf@plt>
  401dba:	b8 00 00 00 00       	mov    $0x0,%eax
  401dbf:	e8 72 fd ff ff       	callq  401b36 <check_fail>
  401dc4:	39 3d 32 37 20 00    	cmp    %edi,0x203732(%rip)        # 6054fc <vlevel>
  401dca:	74 18                	je     401de4 <validate+0x8c>
  401dcc:	bf 5a 32 40 00       	mov    $0x40325a,%edi
  401dd1:	e8 fa ee ff ff       	callq  400cd0 <puts@plt>
  401dd6:	89 de                	mov    %ebx,%esi
  401dd8:	bf 00 00 00 00       	mov    $0x0,%edi
  401ddd:	e8 d5 fd ff ff       	callq  401bb7 <notify_server>
  401de2:	eb af                	jmp    401d93 <validate+0x3b>
  401de4:	0f be 15 3d 43 20 00 	movsbl 0x20433d(%rip),%edx        # 606128 <target_prefix>
  401deb:	89 fe                	mov    %edi,%esi
  401ded:	bf c0 33 40 00       	mov    $0x4033c0,%edi
  401df2:	b8 00 00 00 00       	mov    $0x0,%eax
  401df7:	e8 04 ef ff ff       	callq  400d00 <printf@plt>
  401dfc:	89 de                	mov    %ebx,%esi
  401dfe:	bf 01 00 00 00       	mov    $0x1,%edi
  401e03:	e8 af fd ff ff       	callq  401bb7 <notify_server>
  401e08:	eb 89                	jmp    401d93 <validate+0x3b>

0000000000401e0a <fail>:
  401e0a:	48 83 ec 08          	sub    $0x8,%rsp
  401e0e:	83 3d f3 36 20 00 00 	cmpl   $0x0,0x2036f3(%rip)        # 605508 <is_checker>
  401e15:	75 11                	jne    401e28 <fail+0x1e>
  401e17:	89 fe                	mov    %edi,%esi
  401e19:	bf 00 00 00 00       	mov    $0x0,%edi
  401e1e:	e8 94 fd ff ff       	callq  401bb7 <notify_server>
  401e23:	48 83 c4 08          	add    $0x8,%rsp
  401e27:	c3                   	retq   
  401e28:	b8 00 00 00 00       	mov    $0x0,%eax
  401e2d:	e8 04 fd ff ff       	callq  401b36 <check_fail>

0000000000401e32 <bushandler>:
  401e32:	48 83 ec 08          	sub    $0x8,%rsp
  401e36:	83 3d cb 36 20 00 00 	cmpl   $0x0,0x2036cb(%rip)        # 605508 <is_checker>
  401e3d:	74 14                	je     401e53 <bushandler+0x21>
  401e3f:	bf 8d 32 40 00       	mov    $0x40328d,%edi
  401e44:	e8 87 ee ff ff       	callq  400cd0 <puts@plt>
  401e49:	b8 00 00 00 00       	mov    $0x0,%eax
  401e4e:	e8 e3 fc ff ff       	callq  401b36 <check_fail>
  401e53:	bf f8 33 40 00       	mov    $0x4033f8,%edi
  401e58:	e8 73 ee ff ff       	callq  400cd0 <puts@plt>
  401e5d:	bf 97 32 40 00       	mov    $0x403297,%edi
  401e62:	e8 69 ee ff ff       	callq  400cd0 <puts@plt>
  401e67:	be 00 00 00 00       	mov    $0x0,%esi
  401e6c:	bf 00 00 00 00       	mov    $0x0,%edi
  401e71:	e8 41 fd ff ff       	callq  401bb7 <notify_server>
  401e76:	bf 01 00 00 00       	mov    $0x1,%edi
  401e7b:	e8 c0 ef ff ff       	callq  400e40 <exit@plt>

0000000000401e80 <seghandler>:
  401e80:	48 83 ec 08          	sub    $0x8,%rsp
  401e84:	83 3d 7d 36 20 00 00 	cmpl   $0x0,0x20367d(%rip)        # 605508 <is_checker>
  401e8b:	74 14                	je     401ea1 <seghandler+0x21>
  401e8d:	bf ad 32 40 00       	mov    $0x4032ad,%edi
  401e92:	e8 39 ee ff ff       	callq  400cd0 <puts@plt>
  401e97:	b8 00 00 00 00       	mov    $0x0,%eax
  401e9c:	e8 95 fc ff ff       	callq  401b36 <check_fail>
  401ea1:	bf 18 34 40 00       	mov    $0x403418,%edi
  401ea6:	e8 25 ee ff ff       	callq  400cd0 <puts@plt>
  401eab:	bf 97 32 40 00       	mov    $0x403297,%edi
  401eb0:	e8 1b ee ff ff       	callq  400cd0 <puts@plt>
  401eb5:	be 00 00 00 00       	mov    $0x0,%esi
  401eba:	bf 00 00 00 00       	mov    $0x0,%edi
  401ebf:	e8 f3 fc ff ff       	callq  401bb7 <notify_server>
  401ec4:	bf 01 00 00 00       	mov    $0x1,%edi
  401ec9:	e8 72 ef ff ff       	callq  400e40 <exit@plt>

0000000000401ece <illegalhandler>:
  401ece:	48 83 ec 08          	sub    $0x8,%rsp
  401ed2:	83 3d 2f 36 20 00 00 	cmpl   $0x0,0x20362f(%rip)        # 605508 <is_checker>
  401ed9:	74 14                	je     401eef <illegalhandler+0x21>
  401edb:	bf c0 32 40 00       	mov    $0x4032c0,%edi
  401ee0:	e8 eb ed ff ff       	callq  400cd0 <puts@plt>
  401ee5:	b8 00 00 00 00       	mov    $0x0,%eax
  401eea:	e8 47 fc ff ff       	callq  401b36 <check_fail>
  401eef:	bf 40 34 40 00       	mov    $0x403440,%edi
  401ef4:	e8 d7 ed ff ff       	callq  400cd0 <puts@plt>
  401ef9:	bf 97 32 40 00       	mov    $0x403297,%edi
  401efe:	e8 cd ed ff ff       	callq  400cd0 <puts@plt>
  401f03:	be 00 00 00 00       	mov    $0x0,%esi
  401f08:	bf 00 00 00 00       	mov    $0x0,%edi
  401f0d:	e8 a5 fc ff ff       	callq  401bb7 <notify_server>
  401f12:	bf 01 00 00 00       	mov    $0x1,%edi
  401f17:	e8 24 ef ff ff       	callq  400e40 <exit@plt>

0000000000401f1c <sigalrmhandler>:
  401f1c:	48 83 ec 08          	sub    $0x8,%rsp
  401f20:	83 3d e1 35 20 00 00 	cmpl   $0x0,0x2035e1(%rip)        # 605508 <is_checker>
  401f27:	74 14                	je     401f3d <sigalrmhandler+0x21>
  401f29:	bf d4 32 40 00       	mov    $0x4032d4,%edi
  401f2e:	e8 9d ed ff ff       	callq  400cd0 <puts@plt>
  401f33:	b8 00 00 00 00       	mov    $0x0,%eax
  401f38:	e8 f9 fb ff ff       	callq  401b36 <check_fail>
  401f3d:	be 05 00 00 00       	mov    $0x5,%esi
  401f42:	bf 70 34 40 00       	mov    $0x403470,%edi
  401f47:	b8 00 00 00 00       	mov    $0x0,%eax
  401f4c:	e8 af ed ff ff       	callq  400d00 <printf@plt>
  401f51:	be 00 00 00 00       	mov    $0x0,%esi
  401f56:	bf 00 00 00 00       	mov    $0x0,%edi
  401f5b:	e8 57 fc ff ff       	callq  401bb7 <notify_server>
  401f60:	bf 01 00 00 00       	mov    $0x1,%edi
  401f65:	e8 d6 ee ff ff       	callq  400e40 <exit@plt>

0000000000401f6a <launch>:
  401f6a:	55                   	push   %rbp
  401f6b:	48 89 e5             	mov    %rsp,%rbp
  401f6e:	48 89 fa             	mov    %rdi,%rdx
  401f71:	48 8d 47 17          	lea    0x17(%rdi),%rax
  401f75:	48 83 e0 f0          	and    $0xfffffffffffffff0,%rax
  401f79:	48 29 c4             	sub    %rax,%rsp
  401f7c:	48 8d 7c 24 0f       	lea    0xf(%rsp),%rdi
  401f81:	48 83 e7 f0          	and    $0xfffffffffffffff0,%rdi
  401f85:	be f4 00 00 00       	mov    $0xf4,%esi
  401f8a:	e8 81 ed ff ff       	callq  400d10 <memset@plt>
  401f8f:	48 8b 05 0a 35 20 00 	mov    0x20350a(%rip),%rax        # 6054a0 <stdin@@GLIBC_2.2.5>
  401f96:	48 39 05 53 35 20 00 	cmp    %rax,0x203553(%rip)        # 6054f0 <infile>
  401f9d:	74 29                	je     401fc8 <launch+0x5e>
  401f9f:	c7 05 53 35 20 00 00 	movl   $0x0,0x203553(%rip)        # 6054fc <vlevel>
  401fa6:	00 00 00 
  401fa9:	b8 00 00 00 00       	mov    $0x0,%eax
  401fae:	e8 d5 f9 ff ff       	callq  401988 <test>
  401fb3:	83 3d 4e 35 20 00 00 	cmpl   $0x0,0x20354e(%rip)        # 605508 <is_checker>
  401fba:	75 1d                	jne    401fd9 <launch+0x6f>
  401fbc:	bf f4 32 40 00       	mov    $0x4032f4,%edi
  401fc1:	e8 0a ed ff ff       	callq  400cd0 <puts@plt>
  401fc6:	c9                   	leaveq 
  401fc7:	c3                   	retq   
  401fc8:	bf dc 32 40 00       	mov    $0x4032dc,%edi
  401fcd:	b8 00 00 00 00       	mov    $0x0,%eax
  401fd2:	e8 29 ed ff ff       	callq  400d00 <printf@plt>
  401fd7:	eb c6                	jmp    401f9f <launch+0x35>
  401fd9:	bf e9 32 40 00       	mov    $0x4032e9,%edi
  401fde:	e8 ed ec ff ff       	callq  400cd0 <puts@plt>
  401fe3:	b8 00 00 00 00       	mov    $0x0,%eax
  401fe8:	e8 49 fb ff ff       	callq  401b36 <check_fail>

0000000000401fed <stable_launch>:
  401fed:	53                   	push   %rbx
  401fee:	48 89 3d f3 34 20 00 	mov    %rdi,0x2034f3(%rip)        # 6054e8 <global_offset>
  401ff5:	41 b9 00 00 00 00    	mov    $0x0,%r9d
  401ffb:	41 b8 00 00 00 00    	mov    $0x0,%r8d
  402001:	b9 32 01 00 00       	mov    $0x132,%ecx
  402006:	ba 07 00 00 00       	mov    $0x7,%edx
  40200b:	be 00 00 10 00       	mov    $0x100000,%esi
  402010:	bf 00 60 58 55       	mov    $0x55586000,%edi
  402015:	e8 d6 ec ff ff       	callq  400cf0 <mmap@plt>
  40201a:	48 89 c3             	mov    %rax,%rbx
  40201d:	48 3d 00 60 58 55    	cmp    $0x55586000,%rax
  402023:	75 43                	jne    402068 <stable_launch+0x7b>
  402025:	48 8d 90 f8 ff 0f 00 	lea    0xffff8(%rax),%rdx
  40202c:	48 89 15 fd 40 20 00 	mov    %rdx,0x2040fd(%rip)        # 606130 <stack_top>
  402033:	48 89 e0             	mov    %rsp,%rax
  402036:	48 89 d4             	mov    %rdx,%rsp
  402039:	48 89 c2             	mov    %rax,%rdx
  40203c:	48 89 15 9d 34 20 00 	mov    %rdx,0x20349d(%rip)        # 6054e0 <global_save_stack>
  402043:	48 8b 3d 9e 34 20 00 	mov    0x20349e(%rip),%rdi        # 6054e8 <global_offset>
  40204a:	e8 1b ff ff ff       	callq  401f6a <launch>
  40204f:	48 8b 05 8a 34 20 00 	mov    0x20348a(%rip),%rax        # 6054e0 <global_save_stack>
  402056:	48 89 c4             	mov    %rax,%rsp
  402059:	be 00 00 10 00       	mov    $0x100000,%esi
  40205e:	48 89 df             	mov    %rbx,%rdi
  402061:	e8 6a ed ff ff       	callq  400dd0 <munmap@plt>
  402066:	5b                   	pop    %rbx
  402067:	c3                   	retq   
  402068:	be 00 00 10 00       	mov    $0x100000,%esi
  40206d:	48 89 c7             	mov    %rax,%rdi
  402070:	e8 5b ed ff ff       	callq  400dd0 <munmap@plt>
  402075:	ba 00 60 58 55       	mov    $0x55586000,%edx
  40207a:	be a8 34 40 00       	mov    $0x4034a8,%esi
  40207f:	48 8b 3d 3a 34 20 00 	mov    0x20343a(%rip),%rdi        # 6054c0 <stderr@@GLIBC_2.2.5>
  402086:	b8 00 00 00 00       	mov    $0x0,%eax
  40208b:	e8 e0 ec ff ff       	callq  400d70 <fprintf@plt>
  402090:	bf 01 00 00 00       	mov    $0x1,%edi
  402095:	e8 a6 ed ff ff       	callq  400e40 <exit@plt>

000000000040209a <rio_readinitb>:
  40209a:	89 37                	mov    %esi,(%rdi)
  40209c:	c7 47 04 00 00 00 00 	movl   $0x0,0x4(%rdi)
  4020a3:	48 8d 47 10          	lea    0x10(%rdi),%rax
  4020a7:	48 89 47 08          	mov    %rax,0x8(%rdi)
  4020ab:	c3                   	retq   

00000000004020ac <sigalrm_handler>:
  4020ac:	48 83 ec 08          	sub    $0x8,%rsp
  4020b0:	ba 00 00 00 00       	mov    $0x0,%edx
  4020b5:	be e0 34 40 00       	mov    $0x4034e0,%esi
  4020ba:	48 8b 3d ff 33 20 00 	mov    0x2033ff(%rip),%rdi        # 6054c0 <stderr@@GLIBC_2.2.5>
  4020c1:	b8 00 00 00 00       	mov    $0x0,%eax
  4020c6:	e8 a5 ec ff ff       	callq  400d70 <fprintf@plt>
  4020cb:	bf 01 00 00 00       	mov    $0x1,%edi
  4020d0:	e8 6b ed ff ff       	callq  400e40 <exit@plt>

00000000004020d5 <urlencode>:
  4020d5:	41 54                	push   %r12
  4020d7:	55                   	push   %rbp
  4020d8:	53                   	push   %rbx
  4020d9:	48 83 ec 10          	sub    $0x10,%rsp
  4020dd:	48 89 fb             	mov    %rdi,%rbx
  4020e0:	48 89 f5             	mov    %rsi,%rbp
  4020e3:	48 c7 c1 ff ff ff ff 	mov    $0xffffffffffffffff,%rcx
  4020ea:	b8 00 00 00 00       	mov    $0x0,%eax
  4020ef:	f2 ae                	repnz scas %es:(%rdi),%al
  4020f1:	48 89 ce             	mov    %rcx,%rsi
  4020f4:	48 f7 d6             	not    %rsi
  4020f7:	8d 46 ff             	lea    -0x1(%rsi),%eax
  4020fa:	eb 0e                	jmp    40210a <urlencode+0x35>
  4020fc:	88 55 00             	mov    %dl,0x0(%rbp)
  4020ff:	48 8d 6d 01          	lea    0x1(%rbp),%rbp
  402103:	48 83 c3 01          	add    $0x1,%rbx
  402107:	44 89 e0             	mov    %r12d,%eax
  40210a:	44 8d 60 ff          	lea    -0x1(%rax),%r12d
  40210e:	85 c0                	test   %eax,%eax
  402110:	0f 84 93 00 00 00    	je     4021a9 <urlencode+0xd4>
  402116:	0f b6 13             	movzbl (%rbx),%edx
  402119:	80 fa 2a             	cmp    $0x2a,%dl
  40211c:	0f 94 c1             	sete   %cl
  40211f:	80 fa 2d             	cmp    $0x2d,%dl
  402122:	0f 94 c0             	sete   %al
  402125:	08 c1                	or     %al,%cl
  402127:	75 d3                	jne    4020fc <urlencode+0x27>
  402129:	80 fa 2e             	cmp    $0x2e,%dl
  40212c:	74 ce                	je     4020fc <urlencode+0x27>
  40212e:	80 fa 5f             	cmp    $0x5f,%dl
  402131:	74 c9                	je     4020fc <urlencode+0x27>
  402133:	8d 42 d0             	lea    -0x30(%rdx),%eax
  402136:	3c 09                	cmp    $0x9,%al
  402138:	76 c2                	jbe    4020fc <urlencode+0x27>
  40213a:	8d 42 bf             	lea    -0x41(%rdx),%eax
  40213d:	3c 19                	cmp    $0x19,%al
  40213f:	76 bb                	jbe    4020fc <urlencode+0x27>
  402141:	8d 42 9f             	lea    -0x61(%rdx),%eax
  402144:	3c 19                	cmp    $0x19,%al
  402146:	76 b4                	jbe    4020fc <urlencode+0x27>
  402148:	80 fa 20             	cmp    $0x20,%dl
  40214b:	74 4a                	je     402197 <urlencode+0xc2>
  40214d:	8d 42 e0             	lea    -0x20(%rdx),%eax
  402150:	3c 5f                	cmp    $0x5f,%al
  402152:	0f 96 c1             	setbe  %cl
  402155:	80 fa 09             	cmp    $0x9,%dl
  402158:	0f 94 c0             	sete   %al
  40215b:	08 c1                	or     %al,%cl
  40215d:	74 45                	je     4021a4 <urlencode+0xcf>
  40215f:	0f b6 d2             	movzbl %dl,%edx
  402162:	be 78 35 40 00       	mov    $0x403578,%esi
  402167:	48 8d 7c 24 08       	lea    0x8(%rsp),%rdi
  40216c:	b8 00 00 00 00       	mov    $0x0,%eax
  402171:	e8 ba ec ff ff       	callq  400e30 <sprintf@plt>
  402176:	0f b6 44 24 08       	movzbl 0x8(%rsp),%eax
  40217b:	88 45 00             	mov    %al,0x0(%rbp)
  40217e:	0f b6 44 24 09       	movzbl 0x9(%rsp),%eax
  402183:	88 45 01             	mov    %al,0x1(%rbp)
  402186:	0f b6 44 24 0a       	movzbl 0xa(%rsp),%eax
  40218b:	88 45 02             	mov    %al,0x2(%rbp)
  40218e:	48 8d 6d 03          	lea    0x3(%rbp),%rbp
  402192:	e9 6c ff ff ff       	jmpq   402103 <urlencode+0x2e>
  402197:	c6 45 00 2b          	movb   $0x2b,0x0(%rbp)
  40219b:	48 8d 6d 01          	lea    0x1(%rbp),%rbp
  40219f:	e9 5f ff ff ff       	jmpq   402103 <urlencode+0x2e>
  4021a4:	b8 ff ff ff ff       	mov    $0xffffffff,%eax
  4021a9:	48 83 c4 10          	add    $0x10,%rsp
  4021ad:	5b                   	pop    %rbx
  4021ae:	5d                   	pop    %rbp
  4021af:	41 5c                	pop    %r12
  4021b1:	c3                   	retq   

00000000004021b2 <rio_writen>:
  4021b2:	41 55                	push   %r13
  4021b4:	41 54                	push   %r12
  4021b6:	55                   	push   %rbp
  4021b7:	53                   	push   %rbx
  4021b8:	48 83 ec 08          	sub    $0x8,%rsp
  4021bc:	41 89 fc             	mov    %edi,%r12d
  4021bf:	48 89 f5             	mov    %rsi,%rbp
  4021c2:	49 89 d5             	mov    %rdx,%r13
  4021c5:	48 89 d3             	mov    %rdx,%rbx
  4021c8:	eb 06                	jmp    4021d0 <rio_writen+0x1e>
  4021ca:	48 29 c3             	sub    %rax,%rbx
  4021cd:	48 01 c5             	add    %rax,%rbp
  4021d0:	48 85 db             	test   %rbx,%rbx
  4021d3:	74 24                	je     4021f9 <rio_writen+0x47>
  4021d5:	48 89 da             	mov    %rbx,%rdx
  4021d8:	48 89 ee             	mov    %rbp,%rsi
  4021db:	44 89 e7             	mov    %r12d,%edi
  4021de:	e8 fd ea ff ff       	callq  400ce0 <write@plt>
  4021e3:	48 85 c0             	test   %rax,%rax
  4021e6:	7f e2                	jg     4021ca <rio_writen+0x18>
  4021e8:	e8 a3 ea ff ff       	callq  400c90 <__errno_location@plt>
  4021ed:	83 38 04             	cmpl   $0x4,(%rax)
  4021f0:	75 15                	jne    402207 <rio_writen+0x55>
  4021f2:	b8 00 00 00 00       	mov    $0x0,%eax
  4021f7:	eb d1                	jmp    4021ca <rio_writen+0x18>
  4021f9:	4c 89 e8             	mov    %r13,%rax
  4021fc:	48 83 c4 08          	add    $0x8,%rsp
  402200:	5b                   	pop    %rbx
  402201:	5d                   	pop    %rbp
  402202:	41 5c                	pop    %r12
  402204:	41 5d                	pop    %r13
  402206:	c3                   	retq   
  402207:	48 c7 c0 ff ff ff ff 	mov    $0xffffffffffffffff,%rax
  40220e:	eb ec                	jmp    4021fc <rio_writen+0x4a>

0000000000402210 <rio_read>:
  402210:	41 55                	push   %r13
  402212:	41 54                	push   %r12
  402214:	55                   	push   %rbp
  402215:	53                   	push   %rbx
  402216:	48 83 ec 08          	sub    $0x8,%rsp
  40221a:	48 89 fb             	mov    %rdi,%rbx
  40221d:	49 89 f5             	mov    %rsi,%r13
  402220:	49 89 d4             	mov    %rdx,%r12
  402223:	eb 0a                	jmp    40222f <rio_read+0x1f>
  402225:	e8 66 ea ff ff       	callq  400c90 <__errno_location@plt>
  40222a:	83 38 04             	cmpl   $0x4,(%rax)
  40222d:	75 5a                	jne    402289 <rio_read+0x79>
  40222f:	8b 6b 04             	mov    0x4(%rbx),%ebp
  402232:	85 ed                	test   %ebp,%ebp
  402234:	7f 22                	jg     402258 <rio_read+0x48>
  402236:	48 8d 6b 10          	lea    0x10(%rbx),%rbp
  40223a:	ba 00 20 00 00       	mov    $0x2000,%edx
  40223f:	48 89 ee             	mov    %rbp,%rsi
  402242:	8b 3b                	mov    (%rbx),%edi
  402244:	e8 f7 ea ff ff       	callq  400d40 <read@plt>
  402249:	89 43 04             	mov    %eax,0x4(%rbx)
  40224c:	85 c0                	test   %eax,%eax
  40224e:	78 d5                	js     402225 <rio_read+0x15>
  402250:	74 40                	je     402292 <rio_read+0x82>
  402252:	48 89 6b 08          	mov    %rbp,0x8(%rbx)
  402256:	eb d7                	jmp    40222f <rio_read+0x1f>
  402258:	89 e8                	mov    %ebp,%eax
  40225a:	4c 39 e0             	cmp    %r12,%rax
  40225d:	72 03                	jb     402262 <rio_read+0x52>
  40225f:	44 89 e5             	mov    %r12d,%ebp
  402262:	4c 63 e5             	movslq %ebp,%r12
  402265:	48 8b 73 08          	mov    0x8(%rbx),%rsi
  402269:	4c 89 e2             	mov    %r12,%rdx
  40226c:	4c 89 ef             	mov    %r13,%rdi
  40226f:	e8 1c eb ff ff       	callq  400d90 <memcpy@plt>
  402274:	4c 01 63 08          	add    %r12,0x8(%rbx)
  402278:	29 6b 04             	sub    %ebp,0x4(%rbx)
  40227b:	4c 89 e0             	mov    %r12,%rax
  40227e:	48 83 c4 08          	add    $0x8,%rsp
  402282:	5b                   	pop    %rbx
  402283:	5d                   	pop    %rbp
  402284:	41 5c                	pop    %r12
  402286:	41 5d                	pop    %r13
  402288:	c3                   	retq   
  402289:	48 c7 c0 ff ff ff ff 	mov    $0xffffffffffffffff,%rax
  402290:	eb ec                	jmp    40227e <rio_read+0x6e>
  402292:	b8 00 00 00 00       	mov    $0x0,%eax
  402297:	eb e5                	jmp    40227e <rio_read+0x6e>

0000000000402299 <rio_readlineb>:
  402299:	41 55                	push   %r13
  40229b:	41 54                	push   %r12
  40229d:	55                   	push   %rbp
  40229e:	53                   	push   %rbx
  40229f:	48 83 ec 18          	sub    $0x18,%rsp
  4022a3:	49 89 fd             	mov    %rdi,%r13
  4022a6:	48 89 f5             	mov    %rsi,%rbp
  4022a9:	49 89 d4             	mov    %rdx,%r12
  4022ac:	bb 01 00 00 00       	mov    $0x1,%ebx
  4022b1:	4c 39 e3             	cmp    %r12,%rbx
  4022b4:	73 44                	jae    4022fa <rio_readlineb+0x61>
  4022b6:	ba 01 00 00 00       	mov    $0x1,%edx
  4022bb:	48 8d 74 24 0f       	lea    0xf(%rsp),%rsi
  4022c0:	4c 89 ef             	mov    %r13,%rdi
  4022c3:	e8 48 ff ff ff       	callq  402210 <rio_read>
  4022c8:	83 f8 01             	cmp    $0x1,%eax
  4022cb:	75 19                	jne    4022e6 <rio_readlineb+0x4d>
  4022cd:	48 8d 55 01          	lea    0x1(%rbp),%rdx
  4022d1:	0f b6 44 24 0f       	movzbl 0xf(%rsp),%eax
  4022d6:	88 45 00             	mov    %al,0x0(%rbp)
  4022d9:	3c 0a                	cmp    $0xa,%al
  4022db:	74 1a                	je     4022f7 <rio_readlineb+0x5e>
  4022dd:	48 83 c3 01          	add    $0x1,%rbx
  4022e1:	48 89 d5             	mov    %rdx,%rbp
  4022e4:	eb cb                	jmp    4022b1 <rio_readlineb+0x18>
  4022e6:	85 c0                	test   %eax,%eax
  4022e8:	75 22                	jne    40230c <rio_readlineb+0x73>
  4022ea:	48 83 fb 01          	cmp    $0x1,%rbx
  4022ee:	75 0a                	jne    4022fa <rio_readlineb+0x61>
  4022f0:	b8 00 00 00 00       	mov    $0x0,%eax
  4022f5:	eb 0a                	jmp    402301 <rio_readlineb+0x68>
  4022f7:	48 89 d5             	mov    %rdx,%rbp
  4022fa:	c6 45 00 00          	movb   $0x0,0x0(%rbp)
  4022fe:	48 89 d8             	mov    %rbx,%rax
  402301:	48 83 c4 18          	add    $0x18,%rsp
  402305:	5b                   	pop    %rbx
  402306:	5d                   	pop    %rbp
  402307:	41 5c                	pop    %r12
  402309:	41 5d                	pop    %r13
  40230b:	c3                   	retq   
  40230c:	48 c7 c0 ff ff ff ff 	mov    $0xffffffffffffffff,%rax
  402313:	eb ec                	jmp    402301 <rio_readlineb+0x68>

0000000000402315 <submitr>:
  402315:	41 57                	push   %r15
  402317:	41 56                	push   %r14
  402319:	41 55                	push   %r13
  40231b:	41 54                	push   %r12
  40231d:	55                   	push   %rbp
  40231e:	53                   	push   %rbx
  40231f:	48 81 ec 48 a0 00 00 	sub    $0xa048,%rsp
  402326:	49 89 fc             	mov    %rdi,%r12
  402329:	89 74 24 04          	mov    %esi,0x4(%rsp)
  40232d:	49 89 d7             	mov    %rdx,%r15
  402330:	49 89 ce             	mov    %rcx,%r14
  402333:	4c 89 44 24 08       	mov    %r8,0x8(%rsp)
  402338:	4d 89 cd             	mov    %r9,%r13
  40233b:	48 8b ac 24 80 a0 00 	mov    0xa080(%rsp),%rbp
  402342:	00 
  402343:	c7 84 24 1c 20 00 00 	movl   $0x0,0x201c(%rsp)
  40234a:	00 00 00 00 
  40234e:	ba 00 00 00 00       	mov    $0x0,%edx
  402353:	be 01 00 00 00       	mov    $0x1,%esi
  402358:	bf 02 00 00 00       	mov    $0x2,%edi
  40235d:	e8 0e eb ff ff       	callq  400e70 <socket@plt>
  402362:	85 c0                	test   %eax,%eax
  402364:	0f 88 8f 02 00 00    	js     4025f9 <submitr+0x2e4>
  40236a:	89 c3                	mov    %eax,%ebx
  40236c:	4c 89 e7             	mov    %r12,%rdi
  40236f:	e8 ec e9 ff ff       	callq  400d60 <gethostbyname@plt>
  402374:	48 85 c0             	test   %rax,%rax
  402377:	0f 84 c8 02 00 00    	je     402645 <submitr+0x330>
  40237d:	48 c7 84 24 32 a0 00 	movq   $0x0,0xa032(%rsp)
  402384:	00 00 00 00 00 
  402389:	c7 84 24 3a a0 00 00 	movl   $0x0,0xa03a(%rsp)
  402390:	00 00 00 00 
  402394:	66 c7 84 24 3e a0 00 	movw   $0x0,0xa03e(%rsp)
  40239b:	00 00 00 
  40239e:	66 c7 84 24 30 a0 00 	movw   $0x2,0xa030(%rsp)
  4023a5:	00 02 00 
  4023a8:	48 8b 48 18          	mov    0x18(%rax),%rcx
  4023ac:	48 63 50 14          	movslq 0x14(%rax),%rdx
  4023b0:	48 8d bc 24 34 a0 00 	lea    0xa034(%rsp),%rdi
  4023b7:	00 
  4023b8:	48 8b 31             	mov    (%rcx),%rsi
  4023bb:	e8 20 ea ff ff       	callq  400de0 <memmove@plt>
  4023c0:	0f b7 44 24 04       	movzwl 0x4(%rsp),%eax
  4023c5:	66 c1 c0 08          	rol    $0x8,%ax
  4023c9:	66 89 84 24 32 a0 00 	mov    %ax,0xa032(%rsp)
  4023d0:	00 
  4023d1:	ba 10 00 00 00       	mov    $0x10,%edx
  4023d6:	48 8d b4 24 30 a0 00 	lea    0xa030(%rsp),%rsi
  4023dd:	00 
  4023de:	89 df                	mov    %ebx,%edi
  4023e0:	e8 6b ea ff ff       	callq  400e50 <connect@plt>
  4023e5:	85 c0                	test   %eax,%eax
  4023e7:	0f 88 c0 02 00 00    	js     4026ad <submitr+0x398>
  4023ed:	48 c7 c6 ff ff ff ff 	mov    $0xffffffffffffffff,%rsi
  4023f4:	b8 00 00 00 00       	mov    $0x0,%eax
  4023f9:	48 89 f1             	mov    %rsi,%rcx
  4023fc:	4c 89 ef             	mov    %r13,%rdi
  4023ff:	f2 ae                	repnz scas %es:(%rdi),%al
  402401:	48 89 ca             	mov    %rcx,%rdx
  402404:	48 f7 d2             	not    %rdx
  402407:	48 89 f1             	mov    %rsi,%rcx
  40240a:	4c 89 ff             	mov    %r15,%rdi
  40240d:	f2 ae                	repnz scas %es:(%rdi),%al
  40240f:	48 f7 d1             	not    %rcx
  402412:	49 89 c8             	mov    %rcx,%r8
  402415:	48 89 f1             	mov    %rsi,%rcx
  402418:	4c 89 f7             	mov    %r14,%rdi
  40241b:	f2 ae                	repnz scas %es:(%rdi),%al
  40241d:	48 f7 d1             	not    %rcx
  402420:	4d 8d 44 08 fe       	lea    -0x2(%r8,%rcx,1),%r8
  402425:	48 89 f1             	mov    %rsi,%rcx
  402428:	48 8b 7c 24 08       	mov    0x8(%rsp),%rdi
  40242d:	f2 ae                	repnz scas %es:(%rdi),%al
  40242f:	48 89 c8             	mov    %rcx,%rax
  402432:	48 f7 d0             	not    %rax
  402435:	49 8d 4c 00 ff       	lea    -0x1(%r8,%rax,1),%rcx
  40243a:	48 8d 44 52 fd       	lea    -0x3(%rdx,%rdx,2),%rax
  40243f:	48 8d 84 01 80 00 00 	lea    0x80(%rcx,%rax,1),%rax
  402446:	00 
  402447:	48 3d 00 20 00 00    	cmp    $0x2000,%rax
  40244d:	0f 87 b4 02 00 00    	ja     402707 <submitr+0x3f2>
  402453:	48 8d b4 24 20 40 00 	lea    0x4020(%rsp),%rsi
  40245a:	00 
  40245b:	b9 00 04 00 00       	mov    $0x400,%ecx
  402460:	b8 00 00 00 00       	mov    $0x0,%eax
  402465:	48 89 f7             	mov    %rsi,%rdi
  402468:	f3 48 ab             	rep stos %rax,%es:(%rdi)
  40246b:	4c 89 ef             	mov    %r13,%rdi
  40246e:	e8 62 fc ff ff       	callq  4020d5 <urlencode>
  402473:	85 c0                	test   %eax,%eax
  402475:	0f 88 ff 02 00 00    	js     40277a <submitr+0x465>
  40247b:	4c 8d ac 24 20 60 00 	lea    0x6020(%rsp),%r13
  402482:	00 
  402483:	4d 89 e1             	mov    %r12,%r9
  402486:	4c 8d 84 24 20 40 00 	lea    0x4020(%rsp),%r8
  40248d:	00 
  40248e:	4c 89 f9             	mov    %r15,%rcx
  402491:	4c 89 f2             	mov    %r14,%rdx
  402494:	be 08 35 40 00       	mov    $0x403508,%esi
  402499:	4c 89 ef             	mov    %r13,%rdi
  40249c:	b8 00 00 00 00       	mov    $0x0,%eax
  4024a1:	e8 8a e9 ff ff       	callq  400e30 <sprintf@plt>
  4024a6:	48 c7 c1 ff ff ff ff 	mov    $0xffffffffffffffff,%rcx
  4024ad:	b8 00 00 00 00       	mov    $0x0,%eax
  4024b2:	4c 89 ef             	mov    %r13,%rdi
  4024b5:	f2 ae                	repnz scas %es:(%rdi),%al
  4024b7:	48 89 ca             	mov    %rcx,%rdx
  4024ba:	48 f7 d2             	not    %rdx
  4024bd:	48 8d 52 ff          	lea    -0x1(%rdx),%rdx
  4024c1:	4c 89 ee             	mov    %r13,%rsi
  4024c4:	89 df                	mov    %ebx,%edi
  4024c6:	e8 e7 fc ff ff       	callq  4021b2 <rio_writen>
  4024cb:	48 85 c0             	test   %rax,%rax
  4024ce:	0f 88 31 03 00 00    	js     402805 <submitr+0x4f0>
  4024d4:	89 de                	mov    %ebx,%esi
  4024d6:	48 8d bc 24 20 80 00 	lea    0x8020(%rsp),%rdi
  4024dd:	00 
  4024de:	e8 b7 fb ff ff       	callq  40209a <rio_readinitb>
  4024e3:	ba 00 20 00 00       	mov    $0x2000,%edx
  4024e8:	48 8d b4 24 20 60 00 	lea    0x6020(%rsp),%rsi
  4024ef:	00 
  4024f0:	48 8d bc 24 20 80 00 	lea    0x8020(%rsp),%rdi
  4024f7:	00 
  4024f8:	e8 9c fd ff ff       	callq  402299 <rio_readlineb>
  4024fd:	48 85 c0             	test   %rax,%rax
  402500:	0f 8e 6e 03 00 00    	jle    402874 <submitr+0x55f>
  402506:	4c 8d 44 24 10       	lea    0x10(%rsp),%r8
  40250b:	48 8d 8c 24 1c 20 00 	lea    0x201c(%rsp),%rcx
  402512:	00 
  402513:	48 8d 94 24 20 20 00 	lea    0x2020(%rsp),%rdx
  40251a:	00 
  40251b:	be 7f 35 40 00       	mov    $0x40357f,%esi
  402520:	48 8d bc 24 20 60 00 	lea    0x6020(%rsp),%rdi
  402527:	00 
  402528:	b8 00 00 00 00       	mov    $0x0,%eax
  40252d:	e8 8e e8 ff ff       	callq  400dc0 <__isoc99_sscanf@plt>
  402532:	48 8d b4 24 20 60 00 	lea    0x6020(%rsp),%rsi
  402539:	00 
  40253a:	bf 96 35 40 00       	mov    $0x403596,%edi
  40253f:	b9 03 00 00 00       	mov    $0x3,%ecx
  402544:	f3 a6                	repz cmpsb %es:(%rdi),%ds:(%rsi)
  402546:	0f 97 c0             	seta   %al
  402549:	1c 00                	sbb    $0x0,%al
  40254b:	84 c0                	test   %al,%al
  40254d:	0f 84 9f 03 00 00    	je     4028f2 <submitr+0x5dd>
  402553:	ba 00 20 00 00       	mov    $0x2000,%edx
  402558:	48 8d b4 24 20 60 00 	lea    0x6020(%rsp),%rsi
  40255f:	00 
  402560:	48 8d bc 24 20 80 00 	lea    0x8020(%rsp),%rdi
  402567:	00 
  402568:	e8 2c fd ff ff       	callq  402299 <rio_readlineb>
  40256d:	48 85 c0             	test   %rax,%rax
  402570:	7f c0                	jg     402532 <submitr+0x21d>
  402572:	48 b8 45 72 72 6f 72 	movabs $0x43203a726f727245,%rax
  402579:	3a 20 43 
  40257c:	48 ba 6c 69 65 6e 74 	movabs $0x6e7520746e65696c,%rdx
  402583:	20 75 6e 
  402586:	48 89 45 00          	mov    %rax,0x0(%rbp)
  40258a:	48 89 55 08          	mov    %rdx,0x8(%rbp)
  40258e:	48 b8 61 62 6c 65 20 	movabs $0x206f7420656c6261,%rax
  402595:	74 6f 20 
  402598:	48 ba 72 65 61 64 20 	movabs $0x6165682064616572,%rdx
  40259f:	68 65 61 
  4025a2:	48 89 45 10          	mov    %rax,0x10(%rbp)
  4025a6:	48 89 55 18          	mov    %rdx,0x18(%rbp)
  4025aa:	48 b8 64 65 72 73 20 	movabs $0x6f72662073726564,%rax
  4025b1:	66 72 6f 
  4025b4:	48 ba 6d 20 74 68 65 	movabs $0x657220656874206d,%rdx
  4025bb:	20 72 65 
  4025be:	48 89 45 20          	mov    %rax,0x20(%rbp)
  4025c2:	48 89 55 28          	mov    %rdx,0x28(%rbp)
  4025c6:	48 b8 73 75 6c 74 20 	movabs $0x72657320746c7573,%rax
  4025cd:	73 65 72 
  4025d0:	48 89 45 30          	mov    %rax,0x30(%rbp)
  4025d4:	c7 45 38 76 65 72 00 	movl   $0x726576,0x38(%rbp)
  4025db:	89 df                	mov    %ebx,%edi
  4025dd:	e8 4e e7 ff ff       	callq  400d30 <close@plt>
  4025e2:	b8 ff ff ff ff       	mov    $0xffffffff,%eax
  4025e7:	48 81 c4 48 a0 00 00 	add    $0xa048,%rsp
  4025ee:	5b                   	pop    %rbx
  4025ef:	5d                   	pop    %rbp
  4025f0:	41 5c                	pop    %r12
  4025f2:	41 5d                	pop    %r13
  4025f4:	41 5e                	pop    %r14
  4025f6:	41 5f                	pop    %r15
  4025f8:	c3                   	retq   
  4025f9:	48 b8 45 72 72 6f 72 	movabs $0x43203a726f727245,%rax
  402600:	3a 20 43 
  402603:	48 ba 6c 69 65 6e 74 	movabs $0x6e7520746e65696c,%rdx
  40260a:	20 75 6e 
  40260d:	48 89 45 00          	mov    %rax,0x0(%rbp)
  402611:	48 89 55 08          	mov    %rdx,0x8(%rbp)
  402615:	48 b8 61 62 6c 65 20 	movabs $0x206f7420656c6261,%rax
  40261c:	74 6f 20 
  40261f:	48 ba 63 72 65 61 74 	movabs $0x7320657461657263,%rdx
  402626:	65 20 73 
  402629:	48 89 45 10          	mov    %rax,0x10(%rbp)
  40262d:	48 89 55 18          	mov    %rdx,0x18(%rbp)
  402631:	c7 45 20 6f 63 6b 65 	movl   $0x656b636f,0x20(%rbp)
  402638:	66 c7 45 24 74 00    	movw   $0x74,0x24(%rbp)
  40263e:	b8 ff ff ff ff       	mov    $0xffffffff,%eax
  402643:	eb a2                	jmp    4025e7 <submitr+0x2d2>
  402645:	48 b8 45 72 72 6f 72 	movabs $0x44203a726f727245,%rax
  40264c:	3a 20 44 
  40264f:	48 ba 4e 53 20 69 73 	movabs $0x6e7520736920534e,%rdx
  402656:	20 75 6e 
  402659:	48 89 45 00          	mov    %rax,0x0(%rbp)
  40265d:	48 89 55 08          	mov    %rdx,0x8(%rbp)
  402661:	48 b8 61 62 6c 65 20 	movabs $0x206f7420656c6261,%rax
  402668:	74 6f 20 
  40266b:	48 ba 72 65 73 6f 6c 	movabs $0x2065766c6f736572,%rdx
  402672:	76 65 20 
  402675:	48 89 45 10          	mov    %rax,0x10(%rbp)
  402679:	48 89 55 18          	mov    %rdx,0x18(%rbp)
  40267d:	48 b8 73 65 72 76 65 	movabs $0x6120726576726573,%rax
  402684:	72 20 61 
  402687:	48 89 45 20          	mov    %rax,0x20(%rbp)
  40268b:	c7 45 28 64 64 72 65 	movl   $0x65726464,0x28(%rbp)
  402692:	66 c7 45 2c 73 73    	movw   $0x7373,0x2c(%rbp)
  402698:	c6 45 2e 00          	movb   $0x0,0x2e(%rbp)
  40269c:	89 df                	mov    %ebx,%edi
  40269e:	e8 8d e6 ff ff       	callq  400d30 <close@plt>
  4026a3:	b8 ff ff ff ff       	mov    $0xffffffff,%eax
  4026a8:	e9 3a ff ff ff       	jmpq   4025e7 <submitr+0x2d2>
  4026ad:	48 b8 45 72 72 6f 72 	movabs $0x55203a726f727245,%rax
  4026b4:	3a 20 55 
  4026b7:	48 ba 6e 61 62 6c 65 	movabs $0x6f7420656c62616e,%rdx
  4026be:	20 74 6f 
  4026c1:	48 89 45 00          	mov    %rax,0x0(%rbp)
  4026c5:	48 89 55 08          	mov    %rdx,0x8(%rbp)
  4026c9:	48 b8 20 63 6f 6e 6e 	movabs $0x7463656e6e6f6320,%rax
  4026d0:	65 63 74 
  4026d3:	48 ba 20 74 6f 20 74 	movabs $0x20656874206f7420,%rdx
  4026da:	68 65 20 
  4026dd:	48 89 45 10          	mov    %rax,0x10(%rbp)
  4026e1:	48 89 55 18          	mov    %rdx,0x18(%rbp)
  4026e5:	c7 45 20 73 65 72 76 	movl   $0x76726573,0x20(%rbp)
  4026ec:	66 c7 45 24 65 72    	movw   $0x7265,0x24(%rbp)
  4026f2:	c6 45 26 00          	movb   $0x0,0x26(%rbp)
  4026f6:	89 df                	mov    %ebx,%edi
  4026f8:	e8 33 e6 ff ff       	callq  400d30 <close@plt>
  4026fd:	b8 ff ff ff ff       	mov    $0xffffffff,%eax
  402702:	e9 e0 fe ff ff       	jmpq   4025e7 <submitr+0x2d2>
  402707:	48 b8 45 72 72 6f 72 	movabs $0x52203a726f727245,%rax
  40270e:	3a 20 52 
  402711:	48 ba 65 73 75 6c 74 	movabs $0x747320746c757365,%rdx
  402718:	20 73 74 
  40271b:	48 89 45 00          	mov    %rax,0x0(%rbp)
  40271f:	48 89 55 08          	mov    %rdx,0x8(%rbp)
  402723:	48 b8 72 69 6e 67 20 	movabs $0x6f6f7420676e6972,%rax
  40272a:	74 6f 6f 
  40272d:	48 ba 20 6c 61 72 67 	movabs $0x202e656772616c20,%rdx
  402734:	65 2e 20 
  402737:	48 89 45 10          	mov    %rax,0x10(%rbp)
  40273b:	48 89 55 18          	mov    %rdx,0x18(%rbp)
  40273f:	48 b8 49 6e 63 72 65 	movabs $0x6573616572636e49,%rax
  402746:	61 73 65 
  402749:	48 ba 20 53 55 42 4d 	movabs $0x5254494d42555320,%rdx
  402750:	49 54 52 
  402753:	48 89 45 20          	mov    %rax,0x20(%rbp)
  402757:	48 89 55 28          	mov    %rdx,0x28(%rbp)
  40275b:	48 b8 5f 4d 41 58 42 	movabs $0x46554258414d5f,%rax
  402762:	55 46 00 
  402765:	48 89 45 30          	mov    %rax,0x30(%rbp)
  402769:	89 df                	mov    %ebx,%edi
  40276b:	e8 c0 e5 ff ff       	callq  400d30 <close@plt>
  402770:	b8 ff ff ff ff       	mov    $0xffffffff,%eax
  402775:	e9 6d fe ff ff       	jmpq   4025e7 <submitr+0x2d2>
  40277a:	48 b8 45 72 72 6f 72 	movabs $0x52203a726f727245,%rax
  402781:	3a 20 52 
  402784:	48 ba 65 73 75 6c 74 	movabs $0x747320746c757365,%rdx
  40278b:	20 73 74 
  40278e:	48 89 45 00          	mov    %rax,0x0(%rbp)
  402792:	48 89 55 08          	mov    %rdx,0x8(%rbp)
  402796:	48 b8 72 69 6e 67 20 	movabs $0x6e6f6320676e6972,%rax
  40279d:	63 6f 6e 
  4027a0:	48 ba 74 61 69 6e 73 	movabs $0x6e6120736e696174,%rdx
  4027a7:	20 61 6e 
  4027aa:	48 89 45 10          	mov    %rax,0x10(%rbp)
  4027ae:	48 89 55 18          	mov    %rdx,0x18(%rbp)
  4027b2:	48 b8 20 69 6c 6c 65 	movabs $0x6c6167656c6c6920,%rax
  4027b9:	67 61 6c 
  4027bc:	48 ba 20 6f 72 20 75 	movabs $0x72706e7520726f20,%rdx
  4027c3:	6e 70 72 
  4027c6:	48 89 45 20          	mov    %rax,0x20(%rbp)
  4027ca:	48 89 55 28          	mov    %rdx,0x28(%rbp)
  4027ce:	48 b8 69 6e 74 61 62 	movabs $0x20656c6261746e69,%rax
  4027d5:	6c 65 20 
  4027d8:	48 ba 63 68 61 72 61 	movabs $0x6574636172616863,%rdx
  4027df:	63 74 65 
  4027e2:	48 89 45 30          	mov    %rax,0x30(%rbp)
  4027e6:	48 89 55 38          	mov    %rdx,0x38(%rbp)
  4027ea:	66 c7 45 40 72 2e    	movw   $0x2e72,0x40(%rbp)
  4027f0:	c6 45 42 00          	movb   $0x0,0x42(%rbp)
  4027f4:	89 df                	mov    %ebx,%edi
  4027f6:	e8 35 e5 ff ff       	callq  400d30 <close@plt>
  4027fb:	b8 ff ff ff ff       	mov    $0xffffffff,%eax
  402800:	e9 e2 fd ff ff       	jmpq   4025e7 <submitr+0x2d2>
  402805:	48 b8 45 72 72 6f 72 	movabs $0x43203a726f727245,%rax
  40280c:	3a 20 43 
  40280f:	48 ba 6c 69 65 6e 74 	movabs $0x6e7520746e65696c,%rdx
  402816:	20 75 6e 
  402819:	48 89 45 00          	mov    %rax,0x0(%rbp)
  40281d:	48 89 55 08          	mov    %rdx,0x8(%rbp)
  402821:	48 b8 61 62 6c 65 20 	movabs $0x206f7420656c6261,%rax
  402828:	74 6f 20 
  40282b:	48 ba 77 72 69 74 65 	movabs $0x6f74206574697277,%rdx
  402832:	20 74 6f 
  402835:	48 89 45 10          	mov    %rax,0x10(%rbp)
  402839:	48 89 55 18          	mov    %rdx,0x18(%rbp)
  40283d:	48 b8 20 74 68 65 20 	movabs $0x7365722065687420,%rax
  402844:	72 65 73 
  402847:	48 ba 75 6c 74 20 73 	movabs $0x7672657320746c75,%rdx
  40284e:	65 72 76 
  402851:	48 89 45 20          	mov    %rax,0x20(%rbp)
  402855:	48 89 55 28          	mov    %rdx,0x28(%rbp)
  402859:	66 c7 45 30 65 72    	movw   $0x7265,0x30(%rbp)
  40285f:	c6 45 32 00          	movb   $0x0,0x32(%rbp)
  402863:	89 df                	mov    %ebx,%edi
  402865:	e8 c6 e4 ff ff       	callq  400d30 <close@plt>
  40286a:	b8 ff ff ff ff       	mov    $0xffffffff,%eax
  40286f:	e9 73 fd ff ff       	jmpq   4025e7 <submitr+0x2d2>
  402874:	48 b8 45 72 72 6f 72 	movabs $0x43203a726f727245,%rax
  40287b:	3a 20 43 
  40287e:	48 ba 6c 69 65 6e 74 	movabs $0x6e7520746e65696c,%rdx
  402885:	20 75 6e 
  402888:	48 89 45 00          	mov    %rax,0x0(%rbp)
  40288c:	48 89 55 08          	mov    %rdx,0x8(%rbp)
  402890:	48 b8 61 62 6c 65 20 	movabs $0x206f7420656c6261,%rax
  402897:	74 6f 20 
  40289a:	48 ba 72 65 61 64 20 	movabs $0x7269662064616572,%rdx
  4028a1:	66 69 72 
  4028a4:	48 89 45 10          	mov    %rax,0x10(%rbp)
  4028a8:	48 89 55 18          	mov    %rdx,0x18(%rbp)
  4028ac:	48 b8 73 74 20 68 65 	movabs $0x6564616568207473,%rax
  4028b3:	61 64 65 
  4028b6:	48 ba 72 20 66 72 6f 	movabs $0x72206d6f72662072,%rdx
  4028bd:	6d 20 72 
  4028c0:	48 89 45 20          	mov    %rax,0x20(%rbp)
  4028c4:	48 89 55 28          	mov    %rdx,0x28(%rbp)
  4028c8:	48 b8 65 73 75 6c 74 	movabs $0x657320746c757365,%rax
  4028cf:	20 73 65 
  4028d2:	48 89 45 30          	mov    %rax,0x30(%rbp)
  4028d6:	c7 45 38 72 76 65 72 	movl   $0x72657672,0x38(%rbp)
  4028dd:	c6 45 3c 00          	movb   $0x0,0x3c(%rbp)
  4028e1:	89 df                	mov    %ebx,%edi
  4028e3:	e8 48 e4 ff ff       	callq  400d30 <close@plt>
  4028e8:	b8 ff ff ff ff       	mov    $0xffffffff,%eax
  4028ed:	e9 f5 fc ff ff       	jmpq   4025e7 <submitr+0x2d2>
  4028f2:	ba 00 20 00 00       	mov    $0x2000,%edx
  4028f7:	48 8d b4 24 20 60 00 	lea    0x6020(%rsp),%rsi
  4028fe:	00 
  4028ff:	48 8d bc 24 20 80 00 	lea    0x8020(%rsp),%rdi
  402906:	00 
  402907:	e8 8d f9 ff ff       	callq  402299 <rio_readlineb>
  40290c:	48 85 c0             	test   %rax,%rax
  40290f:	0f 8e 91 00 00 00    	jle    4029a6 <submitr+0x691>
  402915:	8b 94 24 1c 20 00 00 	mov    0x201c(%rsp),%edx
  40291c:	81 fa c8 00 00 00    	cmp    $0xc8,%edx
  402922:	0f 85 02 01 00 00    	jne    402a2a <submitr+0x715>
  402928:	48 8d b4 24 20 60 00 	lea    0x6020(%rsp),%rsi
  40292f:	00 
  402930:	48 89 ef             	mov    %rbp,%rdi
  402933:	e8 88 e3 ff ff       	callq  400cc0 <strcpy@plt>
  402938:	89 df                	mov    %ebx,%edi
  40293a:	e8 f1 e3 ff ff       	callq  400d30 <close@plt>
  40293f:	bf 90 35 40 00       	mov    $0x403590,%edi
  402944:	b9 04 00 00 00       	mov    $0x4,%ecx
  402949:	48 89 ee             	mov    %rbp,%rsi
  40294c:	f3 a6                	repz cmpsb %es:(%rdi),%ds:(%rsi)
  40294e:	0f 97 c0             	seta   %al
  402951:	1c 00                	sbb    $0x0,%al
  402953:	0f be c0             	movsbl %al,%eax
  402956:	85 c0                	test   %eax,%eax
  402958:	0f 84 89 fc ff ff    	je     4025e7 <submitr+0x2d2>
  40295e:	bf 94 35 40 00       	mov    $0x403594,%edi
  402963:	b9 05 00 00 00       	mov    $0x5,%ecx
  402968:	48 89 ee             	mov    %rbp,%rsi
  40296b:	f3 a6                	repz cmpsb %es:(%rdi),%ds:(%rsi)
  40296d:	0f 97 c0             	seta   %al
  402970:	1c 00                	sbb    $0x0,%al
  402972:	0f be c0             	movsbl %al,%eax
  402975:	85 c0                	test   %eax,%eax
  402977:	0f 84 6a fc ff ff    	je     4025e7 <submitr+0x2d2>
  40297d:	bf 99 35 40 00       	mov    $0x403599,%edi
  402982:	b9 03 00 00 00       	mov    $0x3,%ecx
  402987:	48 89 ee             	mov    %rbp,%rsi
  40298a:	f3 a6                	repz cmpsb %es:(%rdi),%ds:(%rsi)
  40298c:	0f 97 c0             	seta   %al
  40298f:	1c 00                	sbb    $0x0,%al
  402991:	0f be c0             	movsbl %al,%eax
  402994:	85 c0                	test   %eax,%eax
  402996:	0f 84 4b fc ff ff    	je     4025e7 <submitr+0x2d2>
  40299c:	b8 ff ff ff ff       	mov    $0xffffffff,%eax
  4029a1:	e9 41 fc ff ff       	jmpq   4025e7 <submitr+0x2d2>
  4029a6:	48 b8 45 72 72 6f 72 	movabs $0x43203a726f727245,%rax
  4029ad:	3a 20 43 
  4029b0:	48 ba 6c 69 65 6e 74 	movabs $0x6e7520746e65696c,%rdx
  4029b7:	20 75 6e 
  4029ba:	48 89 45 00          	mov    %rax,0x0(%rbp)
  4029be:	48 89 55 08          	mov    %rdx,0x8(%rbp)
  4029c2:	48 b8 61 62 6c 65 20 	movabs $0x206f7420656c6261,%rax
  4029c9:	74 6f 20 
  4029cc:	48 ba 72 65 61 64 20 	movabs $0x6174732064616572,%rdx
  4029d3:	73 74 61 
  4029d6:	48 89 45 10          	mov    %rax,0x10(%rbp)
  4029da:	48 89 55 18          	mov    %rdx,0x18(%rbp)
  4029de:	48 b8 74 75 73 20 6d 	movabs $0x7373656d20737574,%rax
  4029e5:	65 73 73 
  4029e8:	48 ba 61 67 65 20 66 	movabs $0x6d6f726620656761,%rdx
  4029ef:	72 6f 6d 
  4029f2:	48 89 45 20          	mov    %rax,0x20(%rbp)
  4029f6:	48 89 55 28          	mov    %rdx,0x28(%rbp)
  4029fa:	48 b8 20 72 65 73 75 	movabs $0x20746c7573657220,%rax
  402a01:	6c 74 20 
  402a04:	48 89 45 30          	mov    %rax,0x30(%rbp)
  402a08:	c7 45 38 73 65 72 76 	movl   $0x76726573,0x38(%rbp)
  402a0f:	66 c7 45 3c 65 72    	movw   $0x7265,0x3c(%rbp)
  402a15:	c6 45 3e 00          	movb   $0x0,0x3e(%rbp)
  402a19:	89 df                	mov    %ebx,%edi
  402a1b:	e8 10 e3 ff ff       	callq  400d30 <close@plt>
  402a20:	b8 ff ff ff ff       	mov    $0xffffffff,%eax
  402a25:	e9 bd fb ff ff       	jmpq   4025e7 <submitr+0x2d2>
  402a2a:	48 8d 4c 24 10       	lea    0x10(%rsp),%rcx
  402a2f:	be 48 35 40 00       	mov    $0x403548,%esi
  402a34:	48 89 ef             	mov    %rbp,%rdi
  402a37:	b8 00 00 00 00       	mov    $0x0,%eax
  402a3c:	e8 ef e3 ff ff       	callq  400e30 <sprintf@plt>
  402a41:	89 df                	mov    %ebx,%edi
  402a43:	e8 e8 e2 ff ff       	callq  400d30 <close@plt>
  402a48:	b8 ff ff ff ff       	mov    $0xffffffff,%eax
  402a4d:	e9 95 fb ff ff       	jmpq   4025e7 <submitr+0x2d2>

0000000000402a52 <init_timeout>:
  402a52:	85 ff                	test   %edi,%edi
  402a54:	74 24                	je     402a7a <init_timeout+0x28>
  402a56:	53                   	push   %rbx
  402a57:	89 fb                	mov    %edi,%ebx
  402a59:	78 18                	js     402a73 <init_timeout+0x21>
  402a5b:	be ac 20 40 00       	mov    $0x4020ac,%esi
  402a60:	bf 0e 00 00 00       	mov    $0xe,%edi
  402a65:	e8 e6 e2 ff ff       	callq  400d50 <signal@plt>
  402a6a:	89 df                	mov    %ebx,%edi
  402a6c:	e8 af e2 ff ff       	callq  400d20 <alarm@plt>
  402a71:	5b                   	pop    %rbx
  402a72:	c3                   	retq   
  402a73:	bb 00 00 00 00       	mov    $0x0,%ebx
  402a78:	eb e1                	jmp    402a5b <init_timeout+0x9>
  402a7a:	c3                   	retq   

0000000000402a7b <init_driver>:
  402a7b:	55                   	push   %rbp
  402a7c:	53                   	push   %rbx
  402a7d:	48 83 ec 18          	sub    $0x18,%rsp
  402a81:	48 89 fd             	mov    %rdi,%rbp
  402a84:	be 01 00 00 00       	mov    $0x1,%esi
  402a89:	bf 0d 00 00 00       	mov    $0xd,%edi
  402a8e:	e8 bd e2 ff ff       	callq  400d50 <signal@plt>
  402a93:	be 01 00 00 00       	mov    $0x1,%esi
  402a98:	bf 1d 00 00 00       	mov    $0x1d,%edi
  402a9d:	e8 ae e2 ff ff       	callq  400d50 <signal@plt>
  402aa2:	be 01 00 00 00       	mov    $0x1,%esi
  402aa7:	bf 1d 00 00 00       	mov    $0x1d,%edi
  402aac:	e8 9f e2 ff ff       	callq  400d50 <signal@plt>
  402ab1:	ba 00 00 00 00       	mov    $0x0,%edx
  402ab6:	be 01 00 00 00       	mov    $0x1,%esi
  402abb:	bf 02 00 00 00       	mov    $0x2,%edi
  402ac0:	e8 ab e3 ff ff       	callq  400e70 <socket@plt>
  402ac5:	85 c0                	test   %eax,%eax
  402ac7:	0f 88 83 00 00 00    	js     402b50 <init_driver+0xd5>
  402acd:	89 c3                	mov    %eax,%ebx
  402acf:	bf c8 30 40 00       	mov    $0x4030c8,%edi
  402ad4:	e8 87 e2 ff ff       	callq  400d60 <gethostbyname@plt>
  402ad9:	48 85 c0             	test   %rax,%rax
  402adc:	0f 84 ba 00 00 00    	je     402b9c <init_driver+0x121>
  402ae2:	48 c7 44 24 02 00 00 	movq   $0x0,0x2(%rsp)
  402ae9:	00 00 
  402aeb:	c7 44 24 0a 00 00 00 	movl   $0x0,0xa(%rsp)
  402af2:	00 
  402af3:	66 c7 44 24 0e 00 00 	movw   $0x0,0xe(%rsp)
  402afa:	66 c7 04 24 02 00    	movw   $0x2,(%rsp)
  402b00:	48 8b 48 18          	mov    0x18(%rax),%rcx
  402b04:	48 63 50 14          	movslq 0x14(%rax),%rdx
  402b08:	48 8d 7c 24 04       	lea    0x4(%rsp),%rdi
  402b0d:	48 8b 31             	mov    (%rcx),%rsi
  402b10:	e8 cb e2 ff ff       	callq  400de0 <memmove@plt>
  402b15:	66 c7 44 24 02 3c 9a 	movw   $0x9a3c,0x2(%rsp)
  402b1c:	ba 10 00 00 00       	mov    $0x10,%edx
  402b21:	48 89 e6             	mov    %rsp,%rsi
  402b24:	89 df                	mov    %ebx,%edi
  402b26:	e8 25 e3 ff ff       	callq  400e50 <connect@plt>
  402b2b:	85 c0                	test   %eax,%eax
  402b2d:	0f 88 d1 00 00 00    	js     402c04 <init_driver+0x189>
  402b33:	89 df                	mov    %ebx,%edi
  402b35:	e8 f6 e1 ff ff       	callq  400d30 <close@plt>
  402b3a:	66 c7 45 00 4f 4b    	movw   $0x4b4f,0x0(%rbp)
  402b40:	c6 45 02 00          	movb   $0x0,0x2(%rbp)
  402b44:	b8 00 00 00 00       	mov    $0x0,%eax
  402b49:	48 83 c4 18          	add    $0x18,%rsp
  402b4d:	5b                   	pop    %rbx
  402b4e:	5d                   	pop    %rbp
  402b4f:	c3                   	retq   
  402b50:	48 b8 45 72 72 6f 72 	movabs $0x43203a726f727245,%rax
  402b57:	3a 20 43 
  402b5a:	48 ba 6c 69 65 6e 74 	movabs $0x6e7520746e65696c,%rdx
  402b61:	20 75 6e 
  402b64:	48 89 45 00          	mov    %rax,0x0(%rbp)
  402b68:	48 89 55 08          	mov    %rdx,0x8(%rbp)
  402b6c:	48 b8 61 62 6c 65 20 	movabs $0x206f7420656c6261,%rax
  402b73:	74 6f 20 
  402b76:	48 ba 63 72 65 61 74 	movabs $0x7320657461657263,%rdx
  402b7d:	65 20 73 
  402b80:	48 89 45 10          	mov    %rax,0x10(%rbp)
  402b84:	48 89 55 18          	mov    %rdx,0x18(%rbp)
  402b88:	c7 45 20 6f 63 6b 65 	movl   $0x656b636f,0x20(%rbp)
  402b8f:	66 c7 45 24 74 00    	movw   $0x74,0x24(%rbp)
  402b95:	b8 ff ff ff ff       	mov    $0xffffffff,%eax
  402b9a:	eb ad                	jmp    402b49 <init_driver+0xce>
  402b9c:	48 b8 45 72 72 6f 72 	movabs $0x44203a726f727245,%rax
  402ba3:	3a 20 44 
  402ba6:	48 ba 4e 53 20 69 73 	movabs $0x6e7520736920534e,%rdx
  402bad:	20 75 6e 
  402bb0:	48 89 45 00          	mov    %rax,0x0(%rbp)
  402bb4:	48 89 55 08          	mov    %rdx,0x8(%rbp)
  402bb8:	48 b8 61 62 6c 65 20 	movabs $0x206f7420656c6261,%rax
  402bbf:	74 6f 20 
  402bc2:	48 ba 72 65 73 6f 6c 	movabs $0x2065766c6f736572,%rdx
  402bc9:	76 65 20 
  402bcc:	48 89 45 10          	mov    %rax,0x10(%rbp)
  402bd0:	48 89 55 18          	mov    %rdx,0x18(%rbp)
  402bd4:	48 b8 73 65 72 76 65 	movabs $0x6120726576726573,%rax
  402bdb:	72 20 61 
  402bde:	48 89 45 20          	mov    %rax,0x20(%rbp)
  402be2:	c7 45 28 64 64 72 65 	movl   $0x65726464,0x28(%rbp)
  402be9:	66 c7 45 2c 73 73    	movw   $0x7373,0x2c(%rbp)
  402bef:	c6 45 2e 00          	movb   $0x0,0x2e(%rbp)
  402bf3:	89 df                	mov    %ebx,%edi
  402bf5:	e8 36 e1 ff ff       	callq  400d30 <close@plt>
  402bfa:	b8 ff ff ff ff       	mov    $0xffffffff,%eax
  402bff:	e9 45 ff ff ff       	jmpq   402b49 <init_driver+0xce>
  402c04:	48 b8 45 72 72 6f 72 	movabs $0x55203a726f727245,%rax
  402c0b:	3a 20 55 
  402c0e:	48 ba 6e 61 62 6c 65 	movabs $0x6f7420656c62616e,%rdx
  402c15:	20 74 6f 
  402c18:	48 89 45 00          	mov    %rax,0x0(%rbp)
  402c1c:	48 89 55 08          	mov    %rdx,0x8(%rbp)
  402c20:	48 b8 20 63 6f 6e 6e 	movabs $0x7463656e6e6f6320,%rax
  402c27:	65 63 74 
  402c2a:	48 ba 20 74 6f 20 73 	movabs $0x76726573206f7420,%rdx
  402c31:	65 72 76 
  402c34:	48 89 45 10          	mov    %rax,0x10(%rbp)
  402c38:	48 89 55 18          	mov    %rdx,0x18(%rbp)
  402c3c:	66 c7 45 20 65 72    	movw   $0x7265,0x20(%rbp)
  402c42:	c6 45 22 00          	movb   $0x0,0x22(%rbp)
  402c46:	89 df                	mov    %ebx,%edi
  402c48:	e8 e3 e0 ff ff       	callq  400d30 <close@plt>
  402c4d:	b8 ff ff ff ff       	mov    $0xffffffff,%eax
  402c52:	e9 f2 fe ff ff       	jmpq   402b49 <init_driver+0xce>

0000000000402c57 <driver_post>:
  402c57:	53                   	push   %rbx
  402c58:	4c 89 cb             	mov    %r9,%rbx
  402c5b:	45 85 c0             	test   %r8d,%r8d
  402c5e:	75 18                	jne    402c78 <driver_post+0x21>
  402c60:	48 85 ff             	test   %rdi,%rdi
  402c63:	74 05                	je     402c6a <driver_post+0x13>
  402c65:	80 3f 00             	cmpb   $0x0,(%rdi)
  402c68:	75 30                	jne    402c9a <driver_post+0x43>
  402c6a:	66 c7 03 4f 4b       	movw   $0x4b4f,(%rbx)
  402c6f:	c6 43 02 00          	movb   $0x0,0x2(%rbx)
  402c73:	44 89 c0             	mov    %r8d,%eax
  402c76:	5b                   	pop    %rbx
  402c77:	c3                   	retq   
  402c78:	48 89 ce             	mov    %rcx,%rsi
  402c7b:	bf 9c 35 40 00       	mov    $0x40359c,%edi
  402c80:	b8 00 00 00 00       	mov    $0x0,%eax
  402c85:	e8 76 e0 ff ff       	callq  400d00 <printf@plt>
  402c8a:	66 c7 03 4f 4b       	movw   $0x4b4f,(%rbx)
  402c8f:	c6 43 02 00          	movb   $0x0,0x2(%rbx)
  402c93:	b8 00 00 00 00       	mov    $0x0,%eax
  402c98:	eb dc                	jmp    402c76 <driver_post+0x1f>
  402c9a:	48 83 ec 08          	sub    $0x8,%rsp
  402c9e:	41 51                	push   %r9
  402ca0:	49 89 c9             	mov    %rcx,%r9
  402ca3:	49 89 d0             	mov    %rdx,%r8
  402ca6:	48 89 f9             	mov    %rdi,%rcx
  402ca9:	48 89 f2             	mov    %rsi,%rdx
  402cac:	be 9a 3c 00 00       	mov    $0x3c9a,%esi
  402cb1:	bf c8 30 40 00       	mov    $0x4030c8,%edi
  402cb6:	e8 5a f6 ff ff       	callq  402315 <submitr>
  402cbb:	48 83 c4 10          	add    $0x10,%rsp
  402cbf:	eb b5                	jmp    402c76 <driver_post+0x1f>

0000000000402cc1 <check>:
  402cc1:	89 f8                	mov    %edi,%eax
  402cc3:	c1 e8 1c             	shr    $0x1c,%eax
  402cc6:	74 1d                	je     402ce5 <check+0x24>
  402cc8:	b9 00 00 00 00       	mov    $0x0,%ecx
  402ccd:	83 f9 1f             	cmp    $0x1f,%ecx
  402cd0:	7f 0d                	jg     402cdf <check+0x1e>
  402cd2:	89 f8                	mov    %edi,%eax
  402cd4:	d3 e8                	shr    %cl,%eax
  402cd6:	3c 0a                	cmp    $0xa,%al
  402cd8:	74 11                	je     402ceb <check+0x2a>
  402cda:	83 c1 08             	add    $0x8,%ecx
  402cdd:	eb ee                	jmp    402ccd <check+0xc>
  402cdf:	b8 01 00 00 00       	mov    $0x1,%eax
  402ce4:	c3                   	retq   
  402ce5:	b8 00 00 00 00       	mov    $0x0,%eax
  402cea:	c3                   	retq   
  402ceb:	b8 00 00 00 00       	mov    $0x0,%eax
  402cf0:	c3                   	retq   

0000000000402cf1 <gencookie>:
  402cf1:	53                   	push   %rbx
  402cf2:	83 c7 01             	add    $0x1,%edi
  402cf5:	e8 a6 df ff ff       	callq  400ca0 <srandom@plt>
  402cfa:	e8 b1 e0 ff ff       	callq  400db0 <random@plt>
  402cff:	89 c3                	mov    %eax,%ebx
  402d01:	89 c7                	mov    %eax,%edi
  402d03:	e8 b9 ff ff ff       	callq  402cc1 <check>
  402d08:	85 c0                	test   %eax,%eax
  402d0a:	74 ee                	je     402cfa <gencookie+0x9>
  402d0c:	89 d8                	mov    %ebx,%eax
  402d0e:	5b                   	pop    %rbx
  402d0f:	c3                   	retq   

0000000000402d10 <__libc_csu_init>:
  402d10:	f3 0f 1e fa          	endbr64 
  402d14:	41 57                	push   %r15
  402d16:	49 89 d7             	mov    %rdx,%r15
  402d19:	41 56                	push   %r14
  402d1b:	49 89 f6             	mov    %rsi,%r14
  402d1e:	41 55                	push   %r13
  402d20:	41 89 fd             	mov    %edi,%r13d
  402d23:	41 54                	push   %r12
  402d25:	4c 8d 25 d4 20 20 00 	lea    0x2020d4(%rip),%r12        # 604e00 <__frame_dummy_init_array_entry>
  402d2c:	55                   	push   %rbp
  402d2d:	48 8d 2d d4 20 20 00 	lea    0x2020d4(%rip),%rbp        # 604e08 <__init_array_end>
  402d34:	53                   	push   %rbx
  402d35:	4c 29 e5             	sub    %r12,%rbp
  402d38:	48 83 ec 08          	sub    $0x8,%rsp
  402d3c:	e8 07 df ff ff       	callq  400c48 <_init>
  402d41:	48 c1 fd 03          	sar    $0x3,%rbp
  402d45:	74 1f                	je     402d66 <__libc_csu_init+0x56>
  402d47:	31 db                	xor    %ebx,%ebx
  402d49:	0f 1f 80 00 00 00 00 	nopl   0x0(%rax)
  402d50:	4c 89 fa             	mov    %r15,%rdx
  402d53:	4c 89 f6             	mov    %r14,%rsi
  402d56:	44 89 ef             	mov    %r13d,%edi
  402d59:	41 ff 14 dc          	callq  *(%r12,%rbx,8)
  402d5d:	48 83 c3 01          	add    $0x1,%rbx
  402d61:	48 39 dd             	cmp    %rbx,%rbp
  402d64:	75 ea                	jne    402d50 <__libc_csu_init+0x40>
  402d66:	48 83 c4 08          	add    $0x8,%rsp
  402d6a:	5b                   	pop    %rbx
  402d6b:	5d                   	pop    %rbp
  402d6c:	41 5c                	pop    %r12
  402d6e:	41 5d                	pop    %r13
  402d70:	41 5e                	pop    %r14
  402d72:	41 5f                	pop    %r15
  402d74:	c3                   	retq   

0000000000402d75 <.annobin___libc_csu_fini.start>:
  402d75:	66 66 2e 0f 1f 84 00 	data16 nopw %cs:0x0(%rax,%rax,1)
  402d7c:	00 00 00 00 

0000000000402d80 <__libc_csu_fini>:
  402d80:	f3 0f 1e fa          	endbr64 
  402d84:	c3                   	retq   

Disassembly of section .fini:

0000000000402d88 <_fini>:
  402d88:	f3 0f 1e fa          	endbr64 
  402d8c:	48 83 ec 08          	sub    $0x8,%rsp
  402d90:	48 83 c4 08          	add    $0x8,%rsp
  402d94:	c3                   	retq   
